---
triple:          'arm64-apple-darwin'
binary-path:     '/Users/ayanmahajan/Desktop/cpp/output/C_Equal_Values'
relocations:
  - { offset: 0x206FA, size: 0x8, addend: 0x0, symName: __ZStL8__ioinit, symObjAddr: 0xA0745, symBinAddr: 0x100010000, symSize: 0x0 }
  - { offset: 0x212A8, size: 0x8, addend: 0x0, symName: __GLOBAL__sub_I_C_Equal_Values.cpp, symObjAddr: 0x41A4, symBinAddr: 0x1000047E4, symSize: 0x14 }
  - { offset: 0x212C0, size: 0x8, addend: 0x0, symName: __Z41__static_initialization_and_destruction_0v, symObjAddr: 0x4168, symBinAddr: 0x1000047A8, symSize: 0x3C }
  - { offset: 0x212DC, size: 0x8, addend: 0x0, symName: __ZNSt15__new_allocatorIPNSt8__detail15_Hash_node_baseEE8allocateEmPKv, symObjAddr: 0x3FE4, symBinAddr: 0x10000472C, symSize: 0x7C }
  - { offset: 0x21364, size: 0x8, addend: 0x0, symName: __ZSt12__to_addressIPNSt8__detail15_Hash_node_baseEEPT_S4_, symObjAddr: 0x3FD0, symBinAddr: 0x100004718, symSize: 0x14 }
  - { offset: 0x21400, size: 0x8, addend: 0x0, symName: __ZNSt15__new_allocatorINSt8__detail10_Hash_nodeIxLb0EEEE8allocateEmPKv, symObjAddr: 0x3F54, symBinAddr: 0x10000469C, symSize: 0x7C }
  - { offset: 0x21490, size: 0x8, addend: 0x0, symName: __ZNK9__gnu_cxx16__aligned_bufferIxE7_M_addrEv, symObjAddr: 0x3F40, symBinAddr: 0x100004688, symSize: 0x14 }
  - { offset: 0x214B6, size: 0x8, addend: 0x0, symName: __ZNSt11__copy_moveILb0ELb0ESt26random_access_iterator_tagE12__assign_oneIxKxEEvPT_PT0_, symObjAddr: 0x3F18, symBinAddr: 0x100004660, symSize: 0x28 }
  - { offset: 0x21507, size: 0x8, addend: 0x0, symName: __ZNKSt8__detail15_Hash_code_baseIxxNS_9_IdentityESt4hashIxENS_18_Mod_range_hashingENS_20_Default_ranged_hashELb0EE12_M_hash_codeERKx, symObjAddr: 0x3EE0, symBinAddr: 0x100004628, symSize: 0x38 }
  - { offset: 0x21542, size: 0x8, addend: 0x0, symName: __ZNSt8__detail16_Hashtable_allocISaINS_10_Hash_nodeIxLb0EEEEE19_M_allocate_bucketsEm, symObjAddr: 0x3E30, symBinAddr: 0x100004578, symSize: 0xB0 }
  - { offset: 0x216A9, size: 0x8, addend: 0x0, symName: __ZSt12__to_addressINSt8__detail10_Hash_nodeIxLb0EEEEPT_S4_, symObjAddr: 0x3E1C, symBinAddr: 0x100004564, symSize: 0x14 }
  - { offset: 0x216FF, size: 0x8, addend: 0x0, symName: __ZNSt8__detail15_Hashtable_baseIxxNS_9_IdentityESt8equal_toIxESt4hashIxENS_18_Mod_range_hashingENS_20_Default_ranged_hashENS_17_Hashtable_traitsILb0ELb1ELb1EEEE9_S_equalsEmRKNS_21_Hash_node_code_cacheILb0EEE, symObjAddr: 0x3E04, symBinAddr: 0x10000454C, symSize: 0x18 }
  - { offset: 0x2172E, size: 0x8, addend: 0x0, symName: __ZNK9__gnu_cxx16__aligned_bufferIxE6_M_ptrEv, symObjAddr: 0x3DE8, symBinAddr: 0x100004530, symSize: 0x1C }
  - { offset: 0x21780, size: 0x8, addend: 0x0, symName: __ZNSt11__copy_moveILb0ELb1ESt26random_access_iterator_tagE8__copy_mIKxxEEPT0_PT_S7_S5_, symObjAddr: 0x3D58, symBinAddr: 0x1000044A0, symSize: 0x90 }
  - { offset: 0x217F3, size: 0x8, addend: 0x0, symName: __ZNKSt8__detail15_Hash_code_baseIxxNS_9_IdentityESt4hashIxENS_18_Mod_range_hashingENS_20_Default_ranged_hashELb0EE15_M_bucket_indexERKNS_16_Hash_node_valueIxLb0EEEm, symObjAddr: 0x3CF4, symBinAddr: 0x10000443C, symSize: 0x64 }
  - { offset: 0x21887, size: 0x8, addend: 0x0, symName: __ZNSt10_HashtableIxxSaIxENSt8__detail9_IdentityESt8equal_toIxESt4hashIxENS1_18_Mod_range_hashingENS1_20_Default_ranged_hashENS1_20_Prime_rehash_policyENS1_17_Hashtable_traitsILb0ELb1ELb1EEEE19_M_allocate_bucketsEm, symObjAddr: 0x3C9C, symBinAddr: 0x1000043E4, symSize: 0x58 }
  - { offset: 0x218BE, size: 0x8, addend: 0x0, symName: __ZSt11__addressofINSt8__detail20_Prime_rehash_policyEEPT_RS2_, symObjAddr: 0x3C88, symBinAddr: 0x1000043D0, symSize: 0x14 }
  - { offset: 0x218F4, size: 0x8, addend: 0x0, symName: __ZNSt8__detail16_Hashtable_allocISaINS_10_Hash_nodeIxLb0EEEEE16_M_allocate_nodeIJRKxEEEPS2_DpOT_, symObjAddr: 0x3B8C, symBinAddr: 0x1000042D4, symSize: 0xFC }
  - { offset: 0x21A4D, size: 0x8, addend: 0x0, symName: __ZNSt8__detail10_Hash_nodeIxLb0EEC1Ev, symObjAddr: 0x3B6C, symBinAddr: 0x1000042B4, symSize: 0x20 }
  - { offset: 0x21A73, size: 0x8, addend: 0x0, symName: __ZNKSt10_HashtableIxxSaIxENSt8__detail9_IdentityESt8equal_toIxESt4hashIxENS1_18_Mod_range_hashingENS1_20_Default_ranged_hashENS1_20_Prime_rehash_policyENS1_17_Hashtable_traitsILb0ELb1ELb1EEEE15_M_bucket_indexERKNS1_16_Hash_node_valueIxLb0EEE, symObjAddr: 0x3B3C, symBinAddr: 0x100004284, symSize: 0x30 }
  - { offset: 0x21AAE, size: 0x8, addend: 0x0, symName: __ZNKSt8__detail15_Hashtable_baseIxxNS_9_IdentityESt8equal_toIxESt4hashIxENS_18_Mod_range_hashingENS_20_Default_ranged_hashENS_17_Hashtable_traitsILb0ELb1ELb1EEEE12_M_equals_trIxEEbRKT_mRKNS_16_Hash_node_valueIxLb0EEE, symObjAddr: 0x3ADC, symBinAddr: 0x100004224, symSize: 0x60 }
  - { offset: 0x21B14, size: 0x8, addend: 0x0, symName: __ZNKSt8__detail21_Hashtable_ebo_helperILi1ESt4hashIxELb1EE7_M_cgetEv, symObjAddr: 0x3AC8, symBinAddr: 0x100004210, symSize: 0x14 }
  - { offset: 0x21B54, size: 0x8, addend: 0x0, symName: __ZNKSt8__detail21_Hashtable_ebo_helperILi0ESt8equal_toIxELb1EE7_M_cgetEv, symObjAddr: 0x3AB4, symBinAddr: 0x1000041FC, symSize: 0x14 }
  - { offset: 0x21B7A, size: 0x8, addend: 0x0, symName: __ZSt11__addressofINSt8__detail10_Hash_nodeIxLb0EEEEPT_RS3_, symObjAddr: 0x3AA0, symBinAddr: 0x1000041E8, symSize: 0x14 }
  - { offset: 0x21BEF, size: 0x8, addend: 0x0, symName: __ZSt14__copy_move_a2ILb0EPKxPxET1_T0_S4_S3_, symObjAddr: 0x3A74, symBinAddr: 0x1000041BC, symSize: 0x2C }
  - { offset: 0x21C5B, size: 0x8, addend: 0x0, symName: __ZNK9__gnu_cxx17__normal_iteratorIPKxSt6vectorIxSaIxEEE4baseEv, symObjAddr: 0x3A60, symBinAddr: 0x1000041A8, symSize: 0x14 }
  - { offset: 0x21C88, size: 0x8, addend: 0x0, symName: __ZSt7forwardIRNSt8__detail14_Node_iteratorIxLb1ELb0EEEEOT_RNSt16remove_referenceIS4_E4typeE, symObjAddr: 0x3A4C, symBinAddr: 0x100004194, symSize: 0x14 }
  - { offset: 0x21CBE, size: 0x8, addend: 0x0, symName: __ZNSt10_HashtableIxxSaIxENSt8__detail9_IdentityESt8equal_toIxESt4hashIxENS1_18_Mod_range_hashingENS1_20_Default_ranged_hashENS1_20_Prime_rehash_policyENS1_17_Hashtable_traitsILb0ELb1ELb1EEEE22_M_insert_bucket_beginEmPNS1_10_Hash_nodeIxLb0EEE, symObjAddr: 0x3940, symBinAddr: 0x100004088, symSize: 0x10C }
  - { offset: 0x21D0A, size: 0x8, addend: 0x0, symName: __ZNKSt8__detail15_Hash_code_baseIxxNS_9_IdentityESt4hashIxENS_18_Mod_range_hashingENS_20_Default_ranged_hashELb0EE13_M_store_codeERNS_21_Hash_node_code_cacheILb0EEEm, symObjAddr: 0x3924, symBinAddr: 0x10000406C, symSize: 0x1C }
  - { offset: 0x21D46, size: 0x8, addend: 0x0, symName: __ZNSt10_HashtableIxxSaIxENSt8__detail9_IdentityESt8equal_toIxESt4hashIxENS1_18_Mod_range_hashingENS1_20_Default_ranged_hashENS1_20_Prime_rehash_policyENS1_17_Hashtable_traitsILb0ELb1ELb1EEEE9_M_rehashEmSt17integral_constantIbLb1EE, symObjAddr: 0x37B8, symBinAddr: 0x100003F00, symSize: 0x16C }
  - { offset: 0x21E17, size: 0x8, addend: 0x0, symName: __ZNSt8__detail17_RehashStateGuardINS_20_Prime_rehash_policyEED1Ev, symObjAddr: 0x3774, symBinAddr: 0x100003EBC, symSize: 0x44 }
  - { offset: 0x21E65, size: 0x8, addend: 0x0, symName: __ZNSt8__detail17_RehashStateGuardINS_20_Prime_rehash_policyEEC1ERS1_, symObjAddr: 0x3730, symBinAddr: 0x100003E78, symSize: 0x44 }
  - { offset: 0x21E9F, size: 0x8, addend: 0x0, symName: __ZNKSt8__detail10_AllocNodeISaINS_10_Hash_nodeIxLb0EEEEEclIJRKxEEEPS2_DpOT_, symObjAddr: 0x36F4, symBinAddr: 0x100003E3C, symSize: 0x3C }
  - { offset: 0x21EE3, size: 0x8, addend: 0x0, symName: __ZNKSt10_HashtableIxxSaIxENSt8__detail9_IdentityESt8equal_toIxESt4hashIxENS1_18_Mod_range_hashingENS1_20_Default_ranged_hashENS1_20_Prime_rehash_policyENS1_17_Hashtable_traitsILb0ELb1ELb1EEEE22_M_find_before_node_trIxEEPNS1_15_Hash_node_baseEmRKT_m, symObjAddr: 0x35F8, symBinAddr: 0x100003D40, symSize: 0xFC }
  - { offset: 0x21F7E, size: 0x8, addend: 0x0, symName: __ZNKSt8__detail15_Hash_code_baseIxxNS_9_IdentityESt4hashIxENS_18_Mod_range_hashingENS_20_Default_ranged_hashELb0EE15_M_bucket_indexEmm, symObjAddr: 0x35CC, symBinAddr: 0x100003D14, symSize: 0x2C }
  - { offset: 0x21FCA, size: 0x8, addend: 0x0, symName: __ZNKSt8__detail15_Hash_code_baseIxxNS_9_IdentityESt4hashIxENS_18_Mod_range_hashingENS_20_Default_ranged_hashELb0EE7_M_hashEv, symObjAddr: 0x35B0, symBinAddr: 0x100003CF8, symSize: 0x1C }
  - { offset: 0x21FF7, size: 0x8, addend: 0x0, symName: __ZSt7forwardINSt8__detail14_Node_iteratorIxLb1ELb0EEEEOT_RNSt16remove_referenceIS3_E4typeE, symObjAddr: 0x359C, symBinAddr: 0x100003CE4, symSize: 0x14 }
  - { offset: 0x22055, size: 0x8, addend: 0x0, symName: __ZNSt8__detail19_Node_iterator_baseIxLb0EEC2EPNS_10_Hash_nodeIxLb0EEE, symObjAddr: 0x3578, symBinAddr: 0x100003CC0, symSize: 0x24 }
  - { offset: 0x22084, size: 0x8, addend: 0x0, symName: __ZNKSt8equal_toIxEclERKxS2_, symObjAddr: 0x3544, symBinAddr: 0x100003C8C, symSize: 0x34 }
  - { offset: 0x220E6, size: 0x8, addend: 0x0, symName: __ZNKSt8__detail15_Hashtable_baseIxxNS_9_IdentityESt8equal_toIxESt4hashIxENS_18_Mod_range_hashingENS_20_Default_ranged_hashENS_17_Hashtable_traitsILb0ELb1ELb1EEEE5_M_eqEv, symObjAddr: 0x3528, symBinAddr: 0x100003C70, symSize: 0x1C }
  - { offset: 0x2210C, size: 0x8, addend: 0x0, symName: __ZNSt8__detail22_Hashtable_hash_traitsISt4hashIxEE22__small_size_thresholdEv, symObjAddr: 0x3520, symBinAddr: 0x100003C68, symSize: 0x8 }
  - { offset: 0x22124, size: 0x8, addend: 0x0, symName: __ZSt11__addressofIPNSt8__detail15_Hash_node_baseEEPT_RS3_, symObjAddr: 0x350C, symBinAddr: 0x100003C54, symSize: 0x14 }
  - { offset: 0x2215A, size: 0x8, addend: 0x0, symName: __ZNSt15__new_allocatorINSt8__detail10_Hash_nodeIxLb0EEEE10deallocateEPS2_m, symObjAddr: 0x34DC, symBinAddr: 0x100003C24, symSize: 0x30 }
  - { offset: 0x221A0, size: 0x8, addend: 0x0, symName: __ZSt9addressofINSt8__detail10_Hash_nodeIxLb0EEEEPT_RS3_, symObjAddr: 0x34C0, symBinAddr: 0x100003C08, symSize: 0x1C }
  - { offset: 0x221DA, size: 0x8, addend: 0x0, symName: __ZN9__gnu_cxx16__aligned_bufferIxE7_M_addrEv, symObjAddr: 0x34AC, symBinAddr: 0x100003BF4, symSize: 0x14 }
  - { offset: 0x22200, size: 0x8, addend: 0x0, symName: __ZSt19__relocate_object_aISt6vectorIxSaIxEES2_SaIS2_EEvPT_PT0_RT1_, symObjAddr: 0x33DC, symBinAddr: 0x100003B24, symSize: 0xD0 }
  - { offset: 0x2235E, size: 0x8, addend: 0x0, symName: __ZSt12__niter_wrapIPxET_RKS1_S1_, symObjAddr: 0x33C4, symBinAddr: 0x100003B0C, symSize: 0x18 }
  - { offset: 0x2239A, size: 0x8, addend: 0x0, symName: __ZSt14__copy_move_a1ILb0EPKxPxET1_T0_S4_S3_, symObjAddr: 0x3398, symBinAddr: 0x100003AE0, symSize: 0x2C }
  - { offset: 0x22402, size: 0x8, addend: 0x0, symName: __ZSt12__niter_baseIPKxSt6vectorIxSaIxEEET_N9__gnu_cxx17__normal_iteratorIS5_T0_EE, symObjAddr: 0x3378, symBinAddr: 0x100003AC0, symSize: 0x20 }
  - { offset: 0x2248A, size: 0x8, addend: 0x0, symName: __ZNSt4pairINSt8__detail14_Node_iteratorIxLb1ELb0EEEbEC1IRS2_bLb1EEEOT_OT0_, symObjAddr: 0x332C, symBinAddr: 0x100003A74, symSize: 0x4C }
  - { offset: 0x224D4, size: 0x8, addend: 0x0, symName: __ZNSt10_HashtableIxxSaIxENSt8__detail9_IdentityESt8equal_toIxESt4hashIxENS1_18_Mod_range_hashingENS1_20_Default_ranged_hashENS1_20_Prime_rehash_policyENS1_17_Hashtable_traitsILb0ELb1ELb1EEEE21_M_insert_unique_nodeEmmPNS1_10_Hash_nodeIxLb0EEEm, symObjAddr: 0x321C, symBinAddr: 0x100003964, symSize: 0x110 }
  - { offset: 0x2258B, size: 0x8, addend: 0x0, symName: __ZNSt10_HashtableIxxSaIxENSt8__detail9_IdentityESt8equal_toIxESt4hashIxENS1_18_Mod_range_hashingENS1_20_Default_ranged_hashENS1_20_Prime_rehash_policyENS1_17_Hashtable_traitsILb0ELb1ELb1EEEE12_Scoped_nodeD1Ev, symObjAddr: 0x31D8, symBinAddr: 0x100003920, symSize: 0x44 }
  - { offset: 0x225E7, size: 0x8, addend: 0x0, symName: __ZNSt10_HashtableIxxSaIxENSt8__detail9_IdentityESt8equal_toIxESt4hashIxENS1_18_Mod_range_hashingENS1_20_Default_ranged_hashENS1_20_Prime_rehash_policyENS1_17_Hashtable_traitsILb0ELb1ELb1EEEE12_Scoped_nodeC1EPNS1_10_Hash_nodeIxLb0EEEPNS1_16_Hashtable_allocISaISF_EEE, symObjAddr: 0x31A4, symBinAddr: 0x1000038EC, symSize: 0x34 }
  - { offset: 0x22622, size: 0x8, addend: 0x0, symName: __ZNSt8__detail12_NodeBuilderINS_9_IdentityEE8_S_buildIRKxS5_NS_10_AllocNodeISaINS_10_Hash_nodeIxLb0EEEEEEEENT1_10__node_ptrEOT_OT0_RKSB_, symObjAddr: 0x3174, symBinAddr: 0x1000038BC, symSize: 0x30 }
  - { offset: 0x22683, size: 0x8, addend: 0x0, symName: __ZNKSt10_HashtableIxxSaIxENSt8__detail9_IdentityESt8equal_toIxESt4hashIxENS1_18_Mod_range_hashingENS1_20_Default_ranged_hashENS1_20_Prime_rehash_policyENS1_17_Hashtable_traitsILb0ELb1ELb1EEEE15_M_find_node_trIxEEPNS1_10_Hash_nodeIxLb0EEEmRKT_m, symObjAddr: 0x3120, symBinAddr: 0x100003868, symSize: 0x54 }
  - { offset: 0x226FA, size: 0x8, addend: 0x0, symName: __ZNKSt10_HashtableIxxSaIxENSt8__detail9_IdentityESt8equal_toIxESt4hashIxENS1_18_Mod_range_hashingENS1_20_Default_ranged_hashENS1_20_Prime_rehash_policyENS1_17_Hashtable_traitsILb0ELb1ELb1EEEE15_M_bucket_indexEm, symObjAddr: 0x30F0, symBinAddr: 0x100003838, symSize: 0x30 }
  - { offset: 0x22735, size: 0x8, addend: 0x0, symName: __ZNKSt8__detail15_Hash_code_baseIxxNS_9_IdentityESt4hashIxENS_18_Mod_range_hashingENS_20_Default_ranged_hashELb0EE15_M_hash_code_trIxEEmRKT_, symObjAddr: 0x30B8, symBinAddr: 0x100003800, symSize: 0x38 }
  - { offset: 0x227C1, size: 0x8, addend: 0x0, symName: __ZNSt4pairINSt8__detail14_Node_iteratorIxLb1ELb0EEEbEC1IS2_bLb1EEEOT_OT0_, symObjAddr: 0x306C, symBinAddr: 0x1000037B4, symSize: 0x4C }
  - { offset: 0x22833, size: 0x8, addend: 0x0, symName: __ZNSt8__detail14_Node_iteratorIxLb1ELb0EEC1EPNS_10_Hash_nodeIxLb0EEE, symObjAddr: 0x3044, symBinAddr: 0x10000378C, symSize: 0x28 }
  - { offset: 0x22862, size: 0x8, addend: 0x0, symName: __ZNKSt8__detail15_Hashtable_baseIxxNS_9_IdentityESt8equal_toIxESt4hashIxENS_18_Mod_range_hashingENS_20_Default_ranged_hashENS_17_Hashtable_traitsILb0ELb1ELb1EEEE16_M_key_equals_trIxEEbRKT_RKNS_16_Hash_node_valueIxLb0EEE, symObjAddr: 0x2FD8, symBinAddr: 0x100003720, symSize: 0x6C }
  - { offset: 0x228FB, size: 0x8, addend: 0x0, symName: __ZNSt10_HashtableIxxSaIxENSt8__detail9_IdentityESt8equal_toIxESt4hashIxENS1_18_Mod_range_hashingENS1_20_Default_ranged_hashENS1_20_Prime_rehash_policyENS1_17_Hashtable_traitsILb0ELb1ELb1EEEE22__small_size_thresholdEv, symObjAddr: 0x2FC4, symBinAddr: 0x10000370C, symSize: 0x14 }
  - { offset: 0x22917, size: 0x8, addend: 0x0, symName: __ZNSt15__new_allocatorIPNSt8__detail15_Hash_node_baseEE10deallocateEPS2_m, symObjAddr: 0x2F94, symBinAddr: 0x1000036DC, symSize: 0x30 }
  - { offset: 0x22985, size: 0x8, addend: 0x0, symName: __ZNSt15__new_allocatorIPNSt8__detail15_Hash_node_baseEED2Ev, symObjAddr: 0x2F80, symBinAddr: 0x1000036C8, symSize: 0x14 }
  - { offset: 0x229BD, size: 0x8, addend: 0x0, symName: __ZSt9addressofIPNSt8__detail15_Hash_node_baseEEPT_RS3_, symObjAddr: 0x2F64, symBinAddr: 0x1000036AC, symSize: 0x1C }
  - { offset: 0x22A21, size: 0x8, addend: 0x0, symName: __ZNSt19__ptr_traits_ptr_toIPNSt8__detail10_Hash_nodeIxLb0EEES2_Lb0EE10pointer_toERS2_, symObjAddr: 0x2F48, symBinAddr: 0x100003690, symSize: 0x1C }
  - { offset: 0x22A7A, size: 0x8, addend: 0x0, symName: __ZN9__gnu_cxx16__aligned_bufferIxE6_M_ptrEv, symObjAddr: 0x2F2C, symBinAddr: 0x100003674, symSize: 0x1C }
  - { offset: 0x22AA4, size: 0x8, addend: 0x0, symName: __ZNSt8__detail21_Hashtable_ebo_helperILi0ESaINS_10_Hash_nodeIxLb0EEEELb1EE6_M_getEv, symObjAddr: 0x2F18, symBinAddr: 0x100003660, symSize: 0x14 }
  - { offset: 0x22ACA, size: 0x8, addend: 0x0, symName: __ZSt14__relocate_a_1IPSt6vectorIxSaIxEES3_SaIS2_EET0_T_S6_S5_RT1_, symObjAddr: 0x2E94, symBinAddr: 0x1000035DC, symSize: 0x84 }
  - { offset: 0x22B53, size: 0x8, addend: 0x0, symName: __ZSt12__niter_baseIPSt6vectorIxSaIxEEET_S4_, symObjAddr: 0x2E80, symBinAddr: 0x1000035C8, symSize: 0x14 }
  - { offset: 0x22B8A, size: 0x8, addend: 0x0, symName: __ZNSt15__new_allocatorISt6vectorIxSaIxEEE8allocateEmPKv, symObjAddr: 0x2DF0, symBinAddr: 0x100003538, symSize: 0x90 }
  - { offset: 0x22C16, size: 0x8, addend: 0x0, symName: __ZNKSt12_Vector_baseISt6vectorIxSaIxEESaIS2_EE19_M_get_Tp_allocatorEv, symObjAddr: 0x2DDC, symBinAddr: 0x100003524, symSize: 0x14 }
  - { offset: 0x22C3C, size: 0x8, addend: 0x0, symName: __ZNSt6vectorIS_IxSaIxEESaIS1_EE11_S_max_sizeERKS2_, symObjAddr: 0x2D80, symBinAddr: 0x1000034C8, symSize: 0x5C }
  - { offset: 0x22D09, size: 0x8, addend: 0x0, symName: __ZSt13__copy_move_aILb0EN9__gnu_cxx17__normal_iteratorIPKxSt6vectorIxSaIxEEEEPxET1_T0_SA_S9_, symObjAddr: 0x2D20, symBinAddr: 0x100003468, symSize: 0x60 }
  - { offset: 0x22D71, size: 0x8, addend: 0x0, symName: __ZSt12__miter_baseIN9__gnu_cxx17__normal_iteratorIPKxSt6vectorIxSaIxEEEEET_S8_, symObjAddr: 0x2D0C, symBinAddr: 0x100003454, symSize: 0x14 }
  - { offset: 0x22DA8, size: 0x8, addend: 0x0, symName: __ZNSt10_HashtableIxxSaIxENSt8__detail9_IdentityESt8equal_toIxESt4hashIxENS1_18_Mod_range_hashingENS1_20_Default_ranged_hashENS1_20_Prime_rehash_policyENS1_17_Hashtable_traitsILb0ELb1ELb1EEEE16_M_insert_uniqueIRKxSF_NS1_10_AllocNodeISaINS1_10_Hash_nodeIxLb0EEEEEEEESt4pairINS1_14_Node_iteratorIxLb1ELb0EEEbEOT_OT0_RKT1_, symObjAddr: 0x2B0C, symBinAddr: 0x100003254, symSize: 0x200 }
  - { offset: 0x22EBF, size: 0x8, addend: 0x0, symName: __ZNSt10_HashtableIxxSaIxENSt8__detail9_IdentityESt8equal_toIxESt4hashIxENS1_18_Mod_range_hashingENS1_20_Default_ranged_hashENS1_20_Prime_rehash_policyENS1_17_Hashtable_traitsILb0ELb1ELb1EEEE14_S_forward_keyERKx, symObjAddr: 0x2AF8, symBinAddr: 0x100003240, symSize: 0x14 }
  - { offset: 0x22EF8, size: 0x8, addend: 0x0, symName: __ZNKSt8__detail9_IdentityclIRKxEEOT_S5_, symObjAddr: 0x2AD8, symBinAddr: 0x100003220, symSize: 0x20 }
  - { offset: 0x22FAD, size: 0x8, addend: 0x0, symName: __ZNSt19__ptr_traits_ptr_toIPPNSt8__detail15_Hash_node_baseES2_Lb0EE10pointer_toERS2_, symObjAddr: 0x2ABC, symBinAddr: 0x100003204, symSize: 0x1C }
  - { offset: 0x22FDA, size: 0x8, addend: 0x0, symName: __ZNSt8__detail16_Hashtable_allocISaINS_10_Hash_nodeIxLb0EEEEE22_M_deallocate_node_ptrEPS2_, symObjAddr: 0x2A64, symBinAddr: 0x1000031AC, symSize: 0x58 }
  - { offset: 0x2309F, size: 0x8, addend: 0x0, symName: __ZNSt8__detail16_Hashtable_allocISaINS_10_Hash_nodeIxLb0EEEEE17_M_node_allocatorEv, symObjAddr: 0x2A48, symBinAddr: 0x100003190, symSize: 0x1C }
  - { offset: 0x230C5, size: 0x8, addend: 0x0, symName: __ZSt12__relocate_aIPSt6vectorIxSaIxEES3_SaIS2_EET0_T_S6_S5_RT1_, symObjAddr: 0x29EC, symBinAddr: 0x100003134, symSize: 0x5C }
  - { offset: 0x23165, size: 0x8, addend: 0x0, symName: __ZNK9__gnu_cxx17__normal_iteratorIPSt6vectorIxSaIxEES1_IS3_SaIS3_EEE4baseEv, symObjAddr: 0x29D8, symBinAddr: 0x100003120, symSize: 0x14 }
  - { offset: 0x231B7, size: 0x8, addend: 0x0, symName: __ZN9__gnu_cxx17__normal_iteratorIPSt6vectorIxSaIxEES1_IS3_SaIS3_EEEC1ERKS4_, symObjAddr: 0x29B0, symBinAddr: 0x1000030F8, symSize: 0x28 }
  - { offset: 0x231E6, size: 0x8, addend: 0x0, symName: __ZNKSt6vectorIS_IxSaIxEESaIS1_EE8max_sizeEv, symObjAddr: 0x2990, symBinAddr: 0x1000030D8, symSize: 0x20 }
  - { offset: 0x2320C, size: 0x8, addend: 0x0, symName: __ZSt8_DestroyISt6vectorIxSaIxEEEvPT_, symObjAddr: 0x2970, symBinAddr: 0x1000030B8, symSize: 0x20 }
  - { offset: 0x2323E, size: 0x8, addend: 0x0, symName: __ZSt11__addressofISt6vectorIxSaIxEEEPT_RS3_, symObjAddr: 0x295C, symBinAddr: 0x1000030A4, symSize: 0x14 }
  - { offset: 0x23270, size: 0x8, addend: 0x0, symName: __ZSt14__relocate_a_1IxxENSt9enable_ifIXsrSt24__is_bitwise_relocatableIT_vE5valueEPS2_E4typeES4_S4_S4_RSaIT0_E, symObjAddr: 0x28F8, symBinAddr: 0x100003040, symSize: 0x64 }
  - { offset: 0x232F0, size: 0x8, addend: 0x0, symName: __ZSt12__niter_baseIPxET_S1_, symObjAddr: 0x28E4, symBinAddr: 0x10000302C, symSize: 0x14 }
  - { offset: 0x23327, size: 0x8, addend: 0x0, symName: __ZNSt15__new_allocatorIxE8allocateEmPKv, symObjAddr: 0x2868, symBinAddr: 0x100002FB0, symSize: 0x7C }
  - { offset: 0x233AF, size: 0x8, addend: 0x0, symName: __ZNSt6vectorIxSaIxEE11_S_max_sizeERKS0_, symObjAddr: 0x2814, symBinAddr: 0x100002F5C, symSize: 0x54 }
  - { offset: 0x23466, size: 0x8, addend: 0x0, symName: __ZSt4copyIN9__gnu_cxx17__normal_iteratorIPKxSt6vectorIxSaIxEEEEPxET0_T_SA_S9_, symObjAddr: 0x27CC, symBinAddr: 0x100002F14, symSize: 0x48 }
  - { offset: 0x234C4, size: 0x8, addend: 0x0, symName: __ZSt4swapIxENSt9enable_ifIXsrSt6__and_IJSt6__not_ISt15__is_tuple_likeIT_EESt21is_move_constructibleIS4_ESt18is_move_assignableIS4_EEE5valueEvE4typeERS4_SE_, symObjAddr: 0x2778, symBinAddr: 0x100002EC0, symSize: 0x54 }
  - { offset: 0x2351D, size: 0x8, addend: 0x0, symName: __ZSt4moveIRxEONSt16remove_referenceIT_E4typeEOS2_, symObjAddr: 0x2764, symBinAddr: 0x100002EAC, symSize: 0x14 }
  - { offset: 0x23553, size: 0x8, addend: 0x0, symName: __ZNSt10_HashtableIxxSaIxENSt8__detail9_IdentityESt8equal_toIxESt4hashIxENS1_18_Mod_range_hashingENS1_20_Default_ranged_hashENS1_20_Prime_rehash_policyENS1_17_Hashtable_traitsILb0ELb1ELb1EEEE20_M_insert_unique_auxIRKxNS1_10_AllocNodeISaINS1_10_Hash_nodeIxLb0EEEEEEEESt4pairINS1_14_Node_iteratorIxLb1ELb0EEEbEOT_RKT0_, symObjAddr: 0x2708, symBinAddr: 0x100002E50, symSize: 0x5C }
  - { offset: 0x235BC, size: 0x8, addend: 0x0, symName: __ZNKSt8__detail19_ConvertToValueTypeINS_9_IdentityExEclIRKxEEOT_S7_, symObjAddr: 0x26E8, symBinAddr: 0x100002E30, symSize: 0x20 }
  - { offset: 0x235FF, size: 0x8, addend: 0x0, symName: __ZNSt8__detail16_Hashtable_allocISaINS_10_Hash_nodeIxLb0EEEEE21_M_deallocate_bucketsEPPNS_15_Hash_node_baseEm, symObjAddr: 0x2670, symBinAddr: 0x100002DB8, symSize: 0x78 }
  - { offset: 0x2370F, size: 0x8, addend: 0x0, symName: __ZNKSt10_HashtableIxxSaIxENSt8__detail9_IdentityESt8equal_toIxESt4hashIxENS1_18_Mod_range_hashingENS1_20_Default_ranged_hashENS1_20_Prime_rehash_policyENS1_17_Hashtable_traitsILb0ELb1ELb1EEEE21_M_uses_single_bucketEPPNS1_15_Hash_node_baseE, symObjAddr: 0x2634, symBinAddr: 0x100002D7C, symSize: 0x3C }
  - { offset: 0x2374A, size: 0x8, addend: 0x0, symName: __ZNSt8__detail16_Hashtable_allocISaINS_10_Hash_nodeIxLb0EEEEE18_M_deallocate_nodeEPS2_, symObjAddr: 0x25C0, symBinAddr: 0x100002D08, symSize: 0x74 }
  - { offset: 0x23803, size: 0x8, addend: 0x0, symName: __ZNKSt8__detail10_Hash_nodeIxLb0EE7_M_nextEv, symObjAddr: 0x25A8, symBinAddr: 0x100002CF0, symSize: 0x18 }
  - { offset: 0x2382D, size: 0x8, addend: 0x0, symName: __ZNK9__gnu_cxx17__normal_iteratorIPSt6vectorIxSaIxEES1_IS3_SaIS3_EEEdeEv, symObjAddr: 0x2590, symBinAddr: 0x100002CD8, symSize: 0x18 }
  - { offset: 0x23857, size: 0x8, addend: 0x0, symName: __ZNK9__gnu_cxx17__normal_iteratorIPSt6vectorIxSaIxEES1_IS3_SaIS3_EEEmiEl, symObjAddr: 0x2540, symBinAddr: 0x100002C88, symSize: 0x50 }
  - { offset: 0x2388E, size: 0x8, addend: 0x0, symName: __ZNSt6vectorIS_IxSaIxEESaIS1_EE11_S_relocateEPS1_S4_S4_RS2_, symObjAddr: 0x250C, symBinAddr: 0x100002C54, symSize: 0x34 }
  - { offset: 0x238EB, size: 0x8, addend: 0x0, symName: __ZSt12__to_addressISt6vectorIxSaIxEEEPT_S4_, symObjAddr: 0x24F8, symBinAddr: 0x100002C40, symSize: 0x14 }
  - { offset: 0x23921, size: 0x8, addend: 0x0, symName: __ZNSt12_Vector_baseISt6vectorIxSaIxEESaIS2_EE11_M_allocateEm, symObjAddr: 0x24A8, symBinAddr: 0x100002BF0, symSize: 0x50 }
  - { offset: 0x2398C, size: 0x8, addend: 0x0, symName: __ZN9__gnu_cxxmiIPSt6vectorIxSaIxEES1_IS3_SaIS3_EEEENS_17__normal_iteratorIT_T0_E15difference_typeERKSA_SD_, symObjAddr: 0x245C, symBinAddr: 0x100002BA4, symSize: 0x4C }
  - { offset: 0x239DD, size: 0x8, addend: 0x0, symName: __ZNSt6vectorIS_IxSaIxEESaIS1_EE5beginEv, symObjAddr: 0x2438, symBinAddr: 0x100002B80, symSize: 0x24 }
  - { offset: 0x23A07, size: 0x8, addend: 0x0, symName: __ZNSt6vectorIS_IxSaIxEESaIS1_EE3endEv, symObjAddr: 0x2410, symBinAddr: 0x100002B58, symSize: 0x28 }
  - { offset: 0x23A31, size: 0x8, addend: 0x0, symName: __ZNKSt6vectorIS_IxSaIxEESaIS1_EE12_M_check_lenEmPKc, symObjAddr: 0x2340, symBinAddr: 0x100002A88, symSize: 0xD0 }
  - { offset: 0x23ACC, size: 0x8, addend: 0x0, symName: __ZNSt12_Destroy_auxILb0EE9__destroyIPSt6vectorIxSaIxEEEEvT_S6_, symObjAddr: 0x22F4, symBinAddr: 0x100002A3C, symSize: 0x4C }
  - { offset: 0x23B12, size: 0x8, addend: 0x0, symName: __ZNSt15__new_allocatorISt6vectorIxSaIxEEE10deallocateEPS2_m, symObjAddr: 0x22B8, symBinAddr: 0x100002A00, symSize: 0x3C }
  - { offset: 0x23B58, size: 0x8, addend: 0x0, symName: __ZSt12__relocate_aIPxS0_SaIxEET0_T_S3_S2_RT1_, symObjAddr: 0x225C, symBinAddr: 0x1000029A4, symSize: 0x5C }
  - { offset: 0x23BF8, size: 0x8, addend: 0x0, symName: __ZNKSt6vectorIxSaIxEE8max_sizeEv, symObjAddr: 0x223C, symBinAddr: 0x100002984, symSize: 0x20 }
  - { offset: 0x23C22, size: 0x8, addend: 0x0, symName: __ZNSt15__new_allocatorIxE10deallocateEPxm, symObjAddr: 0x220C, symBinAddr: 0x100002954, symSize: 0x30 }
  - { offset: 0x23C68, size: 0x8, addend: 0x0, symName: __ZNSt12_Destroy_auxILb1EE9__destroyIPxEEvT_S3_, symObjAddr: 0x21F4, symBinAddr: 0x10000293C, symSize: 0x18 }
  - { offset: 0x23C9C, size: 0x8, addend: 0x0, symName: __ZNSt20__uninitialized_copyILb1EE13__uninit_copyIN9__gnu_cxx17__normal_iteratorIPKxSt6vectorIxSaIxEEEEPxEET0_T_SC_SB_, symObjAddr: 0x21C8, symBinAddr: 0x100002910, symSize: 0x2C }
  - { offset: 0x23CF7, size: 0x8, addend: 0x0, symName: __ZSt9iter_swapIN9__gnu_cxx17__normal_iteratorIPxSt6vectorIxSaIxEEEES6_EvT_T0_, symObjAddr: 0x2184, symBinAddr: 0x1000028CC, symSize: 0x44 }
  - { offset: 0x23D49, size: 0x8, addend: 0x0, symName: __ZN9__gnu_cxxltIPxSt6vectorIxSaIxEEEEbRKNS_17__normal_iteratorIT_T0_EESA_, symObjAddr: 0x2140, symBinAddr: 0x100002888, symSize: 0x44 }
  - { offset: 0x23D9A, size: 0x8, addend: 0x0, symName: __ZN9__gnu_cxx17__normal_iteratorIPxSt6vectorIxSaIxEEEmmEv, symObjAddr: 0x2118, symBinAddr: 0x100002860, symSize: 0x28 }
  - { offset: 0x23DC0, size: 0x8, addend: 0x0, symName: __ZN9__gnu_cxxeqIPxSt6vectorIxSaIxEEEEbRKNS_17__normal_iteratorIT_T0_EESA_, symObjAddr: 0x20D4, symBinAddr: 0x10000281C, symSize: 0x44 }
  - { offset: 0x23E11, size: 0x8, addend: 0x0, symName: __ZNSt10_HashtableIxxSaIxENSt8__detail9_IdentityESt8equal_toIxESt4hashIxENS1_18_Mod_range_hashingENS1_20_Default_ranged_hashENS1_20_Prime_rehash_policyENS1_17_Hashtable_traitsILb0ELb1ELb1EEEE9_M_insertIRKxNS1_10_AllocNodeISaINS1_10_Hash_nodeIxLb0EEEEEEEESt4pairINS1_14_Node_iteratorIxLb1ELb0EEEbEOT_RKT0_St17integral_constantIbLb1EE, symObjAddr: 0x2090, symBinAddr: 0x1000027D8, symSize: 0x44 }
  - { offset: 0x23E9F, size: 0x8, addend: 0x0, symName: __ZNSt8__detail10_AllocNodeISaINS_10_Hash_nodeIxLb0EEEEEC1ERNS_16_Hashtable_allocIS3_EE, symObjAddr: 0x206C, symBinAddr: 0x1000027B4, symSize: 0x24 }
  - { offset: 0x23ECE, size: 0x8, addend: 0x0, symName: __ZNSt8__detail12_Insert_baseIxxSaIxENS_9_IdentityESt8equal_toIxESt4hashIxENS_18_Mod_range_hashingENS_20_Default_ranged_hashENS_20_Prime_rehash_policyENS_17_Hashtable_traitsILb0ELb1ELb1EEEE20_M_conjure_hashtableEv, symObjAddr: 0x2058, symBinAddr: 0x1000027A0, symSize: 0x14 }
  - { offset: 0x23EF8, size: 0x8, addend: 0x0, symName: __ZNSt10_HashtableIxxSaIxENSt8__detail9_IdentityESt8equal_toIxESt4hashIxENS1_18_Mod_range_hashingENS1_20_Default_ranged_hashENS1_20_Prime_rehash_policyENS1_17_Hashtable_traitsILb0ELb1ELb1EEEE21_M_deallocate_bucketsEPPNS1_15_Hash_node_baseEm, symObjAddr: 0x200C, symBinAddr: 0x100002754, symSize: 0x4C }
  - { offset: 0x23F44, size: 0x8, addend: 0x0, symName: __ZNSt8__detail16_Hashtable_allocISaINS_10_Hash_nodeIxLb0EEEEE19_M_deallocate_nodesEPS2_, symObjAddr: 0x1FBC, symBinAddr: 0x100002704, symSize: 0x50 }
  - { offset: 0x23FA3, size: 0x8, addend: 0x0, symName: __ZNKSt10_HashtableIxxSaIxENSt8__detail9_IdentityESt8equal_toIxESt4hashIxENS1_18_Mod_range_hashingENS1_20_Default_ranged_hashENS1_20_Prime_rehash_policyENS1_17_Hashtable_traitsILb0ELb1ELb1EEEE8_M_beginEv, symObjAddr: 0x1FA4, symBinAddr: 0x1000026EC, symSize: 0x18 }
  - { offset: 0x23FE3, size: 0x8, addend: 0x0, symName: __ZNSt6vectorIS_IxSaIxEESaIS1_EE4backEv, symObjAddr: 0x1F6C, symBinAddr: 0x1000026B4, symSize: 0x38 }
  - { offset: 0x2400D, size: 0x8, addend: 0x0, symName: __ZNSt6vectorIS_IxSaIxEESaIS1_EE17_M_realloc_appendIJS1_EEEvDpOT_, symObjAddr: 0x1D80, symBinAddr: 0x1000024C8, symSize: 0x1EC }
  - { offset: 0x24192, size: 0x8, addend: 0x0, symName: __ZZNSt6vectorIS_IxSaIxEESaIS1_EE17_M_realloc_appendIJS1_EEEvDpOT_EN6_GuardC1EPS1_mRS2_, symObjAddr: 0x1CDC, symBinAddr: 0x100002424, symSize: 0x44 }
  - { offset: 0x241D7, size: 0x8, addend: 0x0, symName: __ZZNSt6vectorIS_IxSaIxEESaIS1_EE17_M_realloc_appendIJS1_EEEvDpOT_EN6_GuardD1Ev, symObjAddr: 0x1D20, symBinAddr: 0x100002468, symSize: 0x60 }
  - { offset: 0x24311, size: 0x8, addend: 0x0, symName: __ZSt7forwardISt6vectorIxSaIxEEEOT_RNSt16remove_referenceIS3_E4typeE, symObjAddr: 0x1CC8, symBinAddr: 0x100002410, symSize: 0x14 }
  - { offset: 0x24343, size: 0x8, addend: 0x0, symName: __ZSt8_DestroyIPSt6vectorIxSaIxEEEvT_S4_, symObjAddr: 0x1CA0, symBinAddr: 0x1000023E8, symSize: 0x28 }
  - { offset: 0x243E8, size: 0x8, addend: 0x0, symName: __ZNSt6vectorIxSaIxEE11_S_relocateEPxS2_S2_RS0_, symObjAddr: 0x1C6C, symBinAddr: 0x1000023B4, symSize: 0x34 }
  - { offset: 0x24445, size: 0x8, addend: 0x0, symName: __ZSt12__to_addressIxEPT_S1_, symObjAddr: 0x1C58, symBinAddr: 0x1000023A0, symSize: 0x14 }
  - { offset: 0x2447B, size: 0x8, addend: 0x0, symName: __ZNSt12_Vector_baseIxSaIxEE11_M_allocateEm, symObjAddr: 0x1C08, symBinAddr: 0x100002350, symSize: 0x50 }
  - { offset: 0x244DF, size: 0x8, addend: 0x0, symName: __ZN9__gnu_cxxmiIPxSt6vectorIxSaIxEEEENS_17__normal_iteratorIT_T0_E15difference_typeERKS8_SB_, symObjAddr: 0x1BC8, symBinAddr: 0x100002310, symSize: 0x40 }
  - { offset: 0x24530, size: 0x8, addend: 0x0, symName: __ZNKSt6vectorIxSaIxEE12_M_check_lenEmPKc, symObjAddr: 0x1AF8, symBinAddr: 0x100002240, symSize: 0xD0 }
  - { offset: 0x245D2, size: 0x8, addend: 0x0, symName: __ZSt7forwardIRKxEOT_RNSt16remove_referenceIS2_E4typeE, symObjAddr: 0x1AE4, symBinAddr: 0x10000222C, symSize: 0x14 }
  - { offset: 0x2464C, size: 0x8, addend: 0x0, symName: __ZSt8_DestroyIPxEvT_S1_, symObjAddr: 0x1ABC, symBinAddr: 0x100002204, symSize: 0x28 }
  - { offset: 0x2468E, size: 0x8, addend: 0x0, symName: __ZSt18uninitialized_copyIN9__gnu_cxx17__normal_iteratorIPKxSt6vectorIxSaIxEEEEPxET0_T_SA_S9_, symObjAddr: 0x1A80, symBinAddr: 0x1000021C8, symSize: 0x3C }
  - { offset: 0x24735, size: 0x8, addend: 0x0, symName: __ZN9__gnu_cxx17__normal_iteratorIPKxSt6vectorIxSaIxEEEC1ERKS2_, symObjAddr: 0x1A58, symBinAddr: 0x1000021A0, symSize: 0x28 }
  - { offset: 0x24764, size: 0x8, addend: 0x0, symName: __ZNSt12_Vector_baseIxSaIxEE17_M_create_storageEm, symObjAddr: 0x19F8, symBinAddr: 0x100002140, symSize: 0x60 }
  - { offset: 0x247C6, size: 0x8, addend: 0x0, symName: __ZNSt12_Vector_baseIxSaIxEE12_Vector_implC1ERKS0_, symObjAddr: 0x19AC, symBinAddr: 0x1000020F4, symSize: 0x4C }
  - { offset: 0x2485F, size: 0x8, addend: 0x0, symName: __ZSt9__reverseIN9__gnu_cxx17__normal_iteratorIPxSt6vectorIxSaIxEEEEEvT_S7_St26random_access_iterator_tag, symObjAddr: 0x1930, symBinAddr: 0x100002078, symSize: 0x7C }
  - { offset: 0x248C6, size: 0x8, addend: 0x0, symName: __ZNKSt10_HashtableIxxSaIxENSt8__detail9_IdentityESt8equal_toIxESt4hashIxENS1_18_Mod_range_hashingENS1_20_Default_ranged_hashENS1_20_Prime_rehash_policyENS1_17_Hashtable_traitsILb0ELb1ELb1EEEE4sizeEv, symObjAddr: 0x1918, symBinAddr: 0x100002060, symSize: 0x18 }
  - { offset: 0x248F0, size: 0x8, addend: 0x0, symName: __ZNSt8__detail12_Insert_baseIxxSaIxENS_9_IdentityESt8equal_toIxESt4hashIxENS_18_Mod_range_hashingENS_20_Default_ranged_hashENS_20_Prime_rehash_policyENS_17_Hashtable_traitsILb0ELb1ELb1EEEE6insertERKx, symObjAddr: 0x18C8, symBinAddr: 0x100002010, symSize: 0x50 }
  - { offset: 0x2494D, size: 0x8, addend: 0x0, symName: __ZNK9__gnu_cxx17__normal_iteratorIPxSt6vectorIxSaIxEEE4baseEv, symObjAddr: 0x18B4, symBinAddr: 0x100001FFC, symSize: 0x14 }
  - { offset: 0x2499F, size: 0x8, addend: 0x0, symName: __ZN9__gnu_cxx17__normal_iteratorIPxSt6vectorIxSaIxEEEC1ERKS1_, symObjAddr: 0x188C, symBinAddr: 0x100001FD4, symSize: 0x28 }
  - { offset: 0x249CE, size: 0x8, addend: 0x0, symName: __ZNSt10_HashtableIxxSaIxENSt8__detail9_IdentityESt8equal_toIxESt4hashIxENS1_18_Mod_range_hashingENS1_20_Default_ranged_hashENS1_20_Prime_rehash_policyENS1_17_Hashtable_traitsILb0ELb1ELb1EEEE21_M_deallocate_bucketsEv, symObjAddr: 0x1858, symBinAddr: 0x100001FA0, symSize: 0x34 }
  - { offset: 0x249F8, size: 0x8, addend: 0x0, symName: __ZNSt10_HashtableIxxSaIxENSt8__detail9_IdentityESt8equal_toIxESt4hashIxENS1_18_Mod_range_hashingENS1_20_Default_ranged_hashENS1_20_Prime_rehash_policyENS1_17_Hashtable_traitsILb0ELb1ELb1EEEE5clearEv, symObjAddr: 0x17F8, symBinAddr: 0x100001F40, symSize: 0x60 }
  - { offset: 0x24A46, size: 0x8, addend: 0x0, symName: __ZNSt15__new_allocatorINSt8__detail10_Hash_nodeIxLb0EEEED2Ev, symObjAddr: 0x17E4, symBinAddr: 0x100001F2C, symSize: 0x14 }
  - { offset: 0x24A82, size: 0x8, addend: 0x0, symName: __ZNSt6vectorIS_IxSaIxEESaIS1_EE12emplace_backIJS1_EEERS1_DpOT_, symObjAddr: 0x1708, symBinAddr: 0x100001E50, symSize: 0xDC }
  - { offset: 0x24B34, size: 0x8, addend: 0x0, symName: __ZSt4moveIRSt6vectorIxSaIxEEEONSt16remove_referenceIT_E4typeEOS5_, symObjAddr: 0x16F4, symBinAddr: 0x100001E3C, symSize: 0x14 }
  - { offset: 0x24BA5, size: 0x8, addend: 0x0, symName: __ZNSt12_Vector_baseISt6vectorIxSaIxEESaIS2_EE19_M_get_Tp_allocatorEv, symObjAddr: 0x16E0, symBinAddr: 0x100001E28, symSize: 0x14 }
  - { offset: 0x24BCF, size: 0x8, addend: 0x0, symName: __ZNSt12_Vector_baseISt6vectorIxSaIxEESaIS2_EE13_M_deallocateEPS2_m, symObjAddr: 0x1688, symBinAddr: 0x100001DD0, symSize: 0x58 }
  - { offset: 0x24C75, size: 0x8, addend: 0x0, symName: __ZNSt15__new_allocatorISt6vectorIxSaIxEEED2Ev, symObjAddr: 0x1674, symBinAddr: 0x100001DBC, symSize: 0x14 }
  - { offset: 0x24CB5, size: 0x8, addend: 0x0, symName: __ZNSt12_Vector_baseISt6vectorIxSaIxEESaIS2_EE17_Vector_impl_dataC2Ev, symObjAddr: 0x1648, symBinAddr: 0x100001D90, symSize: 0x2C }
  - { offset: 0x24D18, size: 0x8, addend: 0x0, symName: __ZNSt12_Vector_baseIxSaIxEE17_Vector_impl_dataC2EOS2_, symObjAddr: 0x15D8, symBinAddr: 0x100001D20, symSize: 0x70 }
  - { offset: 0x24D74, size: 0x8, addend: 0x0, symName: __ZSt4moveIRNSt12_Vector_baseIxSaIxEE12_Vector_implEEONSt16remove_referenceIT_E4typeEOS6_, symObjAddr: 0x15C4, symBinAddr: 0x100001D0C, symSize: 0x14 }
  - { offset: 0x24DAA, size: 0x8, addend: 0x0, symName: __ZNSt6vectorIxSaIxEE17_M_realloc_appendIJRKxEEEvDpOT_, symObjAddr: 0x1408, symBinAddr: 0x100001B50, symSize: 0x1BC }
  - { offset: 0x24F2F, size: 0x8, addend: 0x0, symName: __ZZNSt6vectorIxSaIxEE17_M_realloc_appendIJRKxEEEvDpOT_EN6_GuardC1EPxmRS0_, symObjAddr: 0x1364, symBinAddr: 0x100001AAC, symSize: 0x44 }
  - { offset: 0x24F74, size: 0x8, addend: 0x0, symName: __ZZNSt6vectorIxSaIxEE17_M_realloc_appendIJRKxEEEvDpOT_EN6_GuardD1Ev, symObjAddr: 0x13A8, symBinAddr: 0x100001AF0, symSize: 0x60 }
  - { offset: 0x250AB, size: 0x8, addend: 0x0, symName: __ZNSt12_Vector_baseIxSaIxEE13_M_deallocateEPxm, symObjAddr: 0x130C, symBinAddr: 0x100001A54, symSize: 0x58 }
  - { offset: 0x25151, size: 0x8, addend: 0x0, symName: __ZNSt15__new_allocatorIxED2Ev, symObjAddr: 0x12F8, symBinAddr: 0x100001A40, symSize: 0x14 }
  - { offset: 0x25191, size: 0x8, addend: 0x0, symName: __ZNSt12_Vector_baseIxSaIxEE17_Vector_impl_dataC2Ev, symObjAddr: 0x12CC, symBinAddr: 0x100001A14, symSize: 0x2C }
  - { offset: 0x25204, size: 0x8, addend: 0x0, symName: __ZSt22__uninitialized_copy_aIN9__gnu_cxx17__normal_iteratorIPKxSt6vectorIxSaIxEEEEPxxET0_T_SA_S9_RSaIT1_E, symObjAddr: 0x129C, symBinAddr: 0x1000019E4, symSize: 0x30 }
  - { offset: 0x25278, size: 0x8, addend: 0x0, symName: __ZNSt12_Vector_baseIxSaIxEE19_M_get_Tp_allocatorEv, symObjAddr: 0x1288, symBinAddr: 0x1000019D0, symSize: 0x14 }
  - { offset: 0x252A2, size: 0x8, addend: 0x0, symName: __ZNKSt6vectorIxSaIxEE3endEv, symObjAddr: 0x1260, symBinAddr: 0x1000019A8, symSize: 0x28 }
  - { offset: 0x252CC, size: 0x8, addend: 0x0, symName: __ZNKSt6vectorIxSaIxEE5beginEv, symObjAddr: 0x123C, symBinAddr: 0x100001984, symSize: 0x24 }
  - { offset: 0x2532C, size: 0x8, addend: 0x0, symName: __ZNSt12_Vector_baseIxSaIxEEC2EmRKS0_, symObjAddr: 0x11E8, symBinAddr: 0x100001930, symSize: 0x54 }
  - { offset: 0x25379, size: 0x8, addend: 0x0, symName: __ZNKSt12_Vector_baseIxSaIxEE19_M_get_Tp_allocatorEv, symObjAddr: 0x11D4, symBinAddr: 0x10000191C, symSize: 0x14 }
  - { offset: 0x253A6, size: 0x8, addend: 0x0, symName: __ZSt7forwardIbEOT_RNSt16remove_referenceIS0_E4typeE, symObjAddr: 0x11C0, symBinAddr: 0x100001908, symSize: 0x14 }
  - { offset: 0x253D8, size: 0x8, addend: 0x0, symName: __ZSt7reverseIN9__gnu_cxx17__normal_iteratorIPxSt6vectorIxSaIxEEEEEvT_S7_, symObjAddr: 0x1194, symBinAddr: 0x1000018DC, symSize: 0x2C }
  - { offset: 0x2543D, size: 0x8, addend: 0x0, symName: __ZSt3minIxERKT_S2_S2_, symObjAddr: 0x115C, symBinAddr: 0x1000018A4, symSize: 0x38 }
  - { offset: 0x25483, size: 0x8, addend: 0x0, symName: __ZNKSt13unordered_setIxSt4hashIxESt8equal_toIxESaIxEE4sizeEv, symObjAddr: 0x1140, symBinAddr: 0x100001888, symSize: 0x1C }
  - { offset: 0x254AD, size: 0x8, addend: 0x0, symName: __ZNSt13unordered_setIxSt4hashIxESt8equal_toIxESaIxEE6insertERKx, symObjAddr: 0x111C, symBinAddr: 0x100001864, symSize: 0x24 }
  - { offset: 0x254E8, size: 0x8, addend: 0x0, symName: __ZNK9__gnu_cxx17__normal_iteratorIPxSt6vectorIxSaIxEEEdeEv, symObjAddr: 0x1104, symBinAddr: 0x10000184C, symSize: 0x18 }
  - { offset: 0x25512, size: 0x8, addend: 0x0, symName: __ZN9__gnu_cxx17__normal_iteratorIPxSt6vectorIxSaIxEEEppEv, symObjAddr: 0x10DC, symBinAddr: 0x100001824, symSize: 0x28 }
  - { offset: 0x25538, size: 0x8, addend: 0x0, symName: __ZN9__gnu_cxxneIPxSt6vectorIxSaIxEEEEbRKNS_17__normal_iteratorIT_T0_EESA_, symObjAddr: 0x1098, symBinAddr: 0x1000017E0, symSize: 0x44 }
  - { offset: 0x25589, size: 0x8, addend: 0x0, symName: __ZNSt6vectorIxSaIxEE3endEv, symObjAddr: 0x1070, symBinAddr: 0x1000017B8, symSize: 0x28 }
  - { offset: 0x255B3, size: 0x8, addend: 0x0, symName: __ZNSt6vectorIxSaIxEE5beginEv, symObjAddr: 0x104C, symBinAddr: 0x100001794, symSize: 0x24 }
  - { offset: 0x25601, size: 0x8, addend: 0x0, symName: __ZNSt10_HashtableIxxSaIxENSt8__detail9_IdentityESt8equal_toIxESt4hashIxENS1_18_Mod_range_hashingENS1_20_Default_ranged_hashENS1_20_Prime_rehash_policyENS1_17_Hashtable_traitsILb0ELb1ELb1EEEED1Ev, symObjAddr: 0x101C, symBinAddr: 0x100001764, symSize: 0x30 }
  - { offset: 0x25661, size: 0x8, addend: 0x0, symName: __ZNSt8__detail21_Hashtable_ebo_helperILi0ESaINS_10_Hash_nodeIxLb0EEEELb1EEC2Ev, symObjAddr: 0xFF0, symBinAddr: 0x100001738, symSize: 0x2C }
  - { offset: 0x256E8, size: 0x8, addend: 0x0, symName: __ZNSt8__detail21_Hashtable_ebo_helperILi0ESt8equal_toIxELb1EEC2Ev, symObjAddr: 0xFDC, symBinAddr: 0x100001724, symSize: 0x14 }
  - { offset: 0x25728, size: 0x8, addend: 0x0, symName: __ZNSt8__detail21_Hashtable_ebo_helperILi1ESt4hashIxELb1EEC2Ev, symObjAddr: 0xFC8, symBinAddr: 0x100001710, symSize: 0x14 }
  - { offset: 0x2574E, size: 0x8, addend: 0x0, symName: __ZNSt6vectorIS_IxSaIxEESaIS1_EE9push_backEOS1_, symObjAddr: 0xF98, symBinAddr: 0x1000016E0, symSize: 0x30 }
  - { offset: 0x257AD, size: 0x8, addend: 0x0, symName: __ZNSt6vectorIS_IxSaIxEESaIS1_EED1Ev, symObjAddr: 0xF3C, symBinAddr: 0x100001684, symSize: 0x5C }
  - { offset: 0x2582D, size: 0x8, addend: 0x0, symName: __ZNSt12_Vector_baseISt6vectorIxSaIxEESaIS2_EED2Ev, symObjAddr: 0xEE0, symBinAddr: 0x100001628, symSize: 0x5C }
  - { offset: 0x2588D, size: 0x8, addend: 0x0, symName: __ZNSt12_Vector_baseISt6vectorIxSaIxEESaIS2_EE12_Vector_implC1Ev, symObjAddr: 0xEA8, symBinAddr: 0x1000015F0, symSize: 0x38 }
  - { offset: 0x25920, size: 0x8, addend: 0x0, symName: __ZNSt12_Vector_baseIxSaIxEE12_Vector_implC1EOS2_, symObjAddr: 0xE3C, symBinAddr: 0x100001584, symSize: 0x6C }
  - { offset: 0x259A7, size: 0x8, addend: 0x0, symName: __ZNSt6vectorIxSaIxEE9push_backERKx, symObjAddr: 0xD74, symBinAddr: 0x1000014BC, symSize: 0xC8 }
  - { offset: 0x25A72, size: 0x8, addend: 0x0, symName: __ZNSt12_Vector_baseIxSaIxEED2Ev, symObjAddr: 0xD24, symBinAddr: 0x10000146C, symSize: 0x50 }
  - { offset: 0x25AD2, size: 0x8, addend: 0x0, symName: __ZNSt12_Vector_baseIxSaIxEE12_Vector_implC1Ev, symObjAddr: 0xCEC, symBinAddr: 0x100001434, symSize: 0x38 }
  - { offset: 0x25B62, size: 0x8, addend: 0x0, symName: __ZNSt6vectorIxSaIxEED1Ev, symObjAddr: 0xC90, symBinAddr: 0x1000013D8, symSize: 0x5C }
  - { offset: 0x25BE6, size: 0x8, addend: 0x0, symName: __ZNSt6vectorIxSaIxEEC1ERKS1_, symObjAddr: 0xB7C, symBinAddr: 0x1000012C4, symSize: 0x114 }
  - { offset: 0x25CF9, size: 0x8, addend: 0x0, symName: __ZNSt6vectorIS_IxSaIxEESaIS1_EEixEm, symObjAddr: 0xB48, symBinAddr: 0x100001290, symSize: 0x34 }
  - { offset: 0x25D34, size: 0x8, addend: 0x0, symName: __ZNKSt6vectorIS_IxSaIxEESaIS1_EE4sizeEv, symObjAddr: 0xB14, symBinAddr: 0x10000125C, symSize: 0x34 }
  - { offset: 0x25D5E, size: 0x8, addend: 0x0, symName: __ZNSt6vectorIxSaIxEEixEm, symObjAddr: 0xAEC, symBinAddr: 0x100001234, symSize: 0x28 }
  - { offset: 0x25D99, size: 0x8, addend: 0x0, symName: __ZNKSt6vectorIxSaIxEE4sizeEv, symObjAddr: 0xAC4, symBinAddr: 0x10000120C, symSize: 0x28 }
  - { offset: 0x25DBF, size: 0x8, addend: 0x0, symName: __ZSt3maxImERKT_S2_S2_, symObjAddr: 0xA8C, symBinAddr: 0x1000011D4, symSize: 0x38 }
  - { offset: 0x25E0A, size: 0x8, addend: 0x0, symName: _main, symObjAddr: 0x99C, symBinAddr: 0x1000010E4, symSize: 0xF0 }
  - { offset: 0x25E4A, size: 0x8, addend: 0x0, symName: __Z12runtestcasesv, symObjAddr: 0x634, symBinAddr: 0x100000D7C, symSize: 0x368 }
  - { offset: 0x25FCA, size: 0x8, addend: 0x0, symName: __ZNSt13unordered_setIxSt4hashIxESt8equal_toIxESaIxEED1Ev, symObjAddr: 0x614, symBinAddr: 0x100000D5C, symSize: 0x20 }
  - { offset: 0x2600A, size: 0x8, addend: 0x0, symName: __ZNSt13unordered_setIxSt4hashIxESt8equal_toIxESaIxEEC1Ev, symObjAddr: 0x5F4, symBinAddr: 0x100000D3C, symSize: 0x20 }
  - { offset: 0x2604A, size: 0x8, addend: 0x0, symName: __ZNSt10_HashtableIxxSaIxENSt8__detail9_IdentityESt8equal_toIxESt4hashIxENS1_18_Mod_range_hashingENS1_20_Default_ranged_hashENS1_20_Prime_rehash_policyENS1_17_Hashtable_traitsILb0ELb1ELb1EEEEC1Ev, symObjAddr: 0x584, symBinAddr: 0x100000CCC, symSize: 0x70 }
  - { offset: 0x26098, size: 0x8, addend: 0x0, symName: __ZNSt8__detail16_Hashtable_allocISaINS_10_Hash_nodeIxLb0EEEEED2Ev, symObjAddr: 0x564, symBinAddr: 0x100000CAC, symSize: 0x20 }
  - { offset: 0x260D8, size: 0x8, addend: 0x0, symName: __ZNSt8__detail16_Hashtable_allocISaINS_10_Hash_nodeIxLb0EEEEEC2Ev, symObjAddr: 0x544, symBinAddr: 0x100000C8C, symSize: 0x20 }
  - { offset: 0x26126, size: 0x8, addend: 0x0, symName: __ZNSt8__detail21_Hashtable_ebo_helperILi0ESaINS_10_Hash_nodeIxLb0EEEELb1EED2Ev, symObjAddr: 0x518, symBinAddr: 0x100000C60, symSize: 0x2C }
  - { offset: 0x2618A, size: 0x8, addend: 0x0, symName: __ZNSt8__detail15_Hashtable_baseIxxNS_9_IdentityESt8equal_toIxESt4hashIxENS_18_Mod_range_hashingENS_20_Default_ranged_hashENS_17_Hashtable_traitsILb0ELb1ELb1EEEEC2Ev, symObjAddr: 0x4F0, symBinAddr: 0x100000C38, symSize: 0x28 }
  - { offset: 0x261CA, size: 0x8, addend: 0x0, symName: __ZNSt8__detail15_Hash_code_baseIxxNS_9_IdentityESt4hashIxENS_18_Mod_range_hashingENS_20_Default_ranged_hashELb0EEC2Ev, symObjAddr: 0x4D0, symBinAddr: 0x100000C18, symSize: 0x20 }
  - { offset: 0x261F7, size: 0x8, addend: 0x0, symName: __Z6getvecii, symObjAddr: 0x42C, symBinAddr: 0x100000B74, symSize: 0xA4 }
  - { offset: 0x26275, size: 0x8, addend: 0x0, symName: __ZNSt6vectorIS_IxSaIxEESaIS1_EEC1Ev, symObjAddr: 0x40C, symBinAddr: 0x100000B54, symSize: 0x20 }
  - { offset: 0x262B5, size: 0x8, addend: 0x0, symName: __ZNSt12_Vector_baseISt6vectorIxSaIxEESaIS2_EEC2Ev, symObjAddr: 0x3EC, symBinAddr: 0x100000B34, symSize: 0x20 }
  - { offset: 0x26302, size: 0x8, addend: 0x0, symName: __ZNSt12_Vector_baseISt6vectorIxSaIxEESaIS2_EE12_Vector_implD1Ev, symObjAddr: 0x3C0, symBinAddr: 0x100000B08, symSize: 0x2C }
  - { offset: 0x26352, size: 0x8, addend: 0x0, symName: __Z6getveci, symObjAddr: 0x330, symBinAddr: 0x100000A78, symSize: 0x90 }
  - { offset: 0x263D1, size: 0x8, addend: 0x0, symName: __ZNSt6vectorIxSaIxEEC1EOS1_, symObjAddr: 0x308, symBinAddr: 0x100000A50, symSize: 0x28 }
  - { offset: 0x2641F, size: 0x8, addend: 0x0, symName: __ZNSt12_Vector_baseIxSaIxEEC2EOS1_, symObjAddr: 0x2E0, symBinAddr: 0x100000A28, symSize: 0x28 }
  - { offset: 0x26468, size: 0x8, addend: 0x0, symName: __ZNSt6vectorIxSaIxEEC1Ev, symObjAddr: 0x2C0, symBinAddr: 0x100000A08, symSize: 0x20 }
  - { offset: 0x264A8, size: 0x8, addend: 0x0, symName: __ZNSt12_Vector_baseIxSaIxEEC2Ev, symObjAddr: 0x2A0, symBinAddr: 0x1000009E8, symSize: 0x20 }
  - { offset: 0x264F5, size: 0x8, addend: 0x0, symName: __ZNSt12_Vector_baseIxSaIxEE12_Vector_implD1Ev, symObjAddr: 0x274, symBinAddr: 0x1000009BC, symSize: 0x2C }
  - { offset: 0x26541, size: 0x8, addend: 0x0, symName: __Z5printSt6vectorIS_IxSaIxEESaIS1_EE, symObjAddr: 0x1DC, symBinAddr: 0x100000924, symSize: 0x98 }
  - { offset: 0x26589, size: 0x8, addend: 0x0, symName: __Z5printSt6vectorIxSaIxEE, symObjAddr: 0x138, symBinAddr: 0x100000880, symSize: 0xA4 }
  - { offset: 0x265D6, size: 0x8, addend: 0x0, symName: __ZSt3minImERKT_S2_S2_, symObjAddr: 0x100, symBinAddr: 0x100000848, symSize: 0x38 }
  - { offset: 0x2661C, size: 0x8, addend: 0x0, symName: __ZNSt8__detail20_Prime_rehash_policy8_M_resetEm, symObjAddr: 0xDC, symBinAddr: 0x100000824, symSize: 0x24 }
  - { offset: 0x26657, size: 0x8, addend: 0x0, symName: __ZNKSt8__detail20_Prime_rehash_policy8_M_stateEv, symObjAddr: 0xC4, symBinAddr: 0x10000080C, symSize: 0x18 }
  - { offset: 0x266A9, size: 0x8, addend: 0x0, symName: __ZNSt8__detail20_Prime_rehash_policyC1Ef, symObjAddr: 0x98, symBinAddr: 0x1000007E0, symSize: 0x2C }
  - { offset: 0x266D8, size: 0x8, addend: 0x0, symName: __ZNKSt8__detail18_Mod_range_hashingclEmm, symObjAddr: 0x68, symBinAddr: 0x1000007B0, symSize: 0x30 }
  - { offset: 0x2673E, size: 0x8, addend: 0x0, symName: __ZNSt8__detail15_Hash_node_baseC1Ev, symObjAddr: 0x4C, symBinAddr: 0x100000794, symSize: 0x1C }
  - { offset: 0x26768, size: 0x8, addend: 0x0, symName: __ZNSt8__detail15_Hash_node_baseC2Ev, symObjAddr: 0x30, symBinAddr: 0x100000778, symSize: 0x1C }
  - { offset: 0x2678E, size: 0x8, addend: 0x0, symName: __ZNKSt4hashIxEclEx, symObjAddr: 0x18, symBinAddr: 0x100000760, symSize: 0x18 }
  - { offset: 0x267CF, size: 0x8, addend: 0x0, symName: __ZnwmPv, symObjAddr: 0x0, symBinAddr: 0x100000748, symSize: 0x18 }
...
