---
triple:          'arm64-apple-darwin'
binary-path:     '/Users/ayanmahajan/Desktop/cpp/A_Vadim_s_Collection'
relocations:
  - { offset: 0x32077, size: 0x8, addend: 0x0, symName: __ZStL8__ioinit, symObjAddr: 0x103849, symBinAddr: 0x100014000, symSize: 0x0 }
  - { offset: 0x33312, size: 0x8, addend: 0x0, symName: __GLOBAL__sub_I_A_Vadim_s_Collection.cpp, symObjAddr: 0x6C0C, symBinAddr: 0x10000709C, symSize: 0x14 }
  - { offset: 0x3332A, size: 0x8, addend: 0x0, symName: __Z41__static_initialization_and_destruction_0v, symObjAddr: 0x6BD0, symBinAddr: 0x100007060, symSize: 0x3C }
  - { offset: 0x33342, size: 0x8, addend: 0x0, symName: __ZNSt11__copy_moveILb0ELb0ESt26random_access_iterator_tagE12__assign_oneIxKxEEvPT_PT0_, symObjAddr: 0x68F0, symBinAddr: 0x100007038, symSize: 0x28 }
  - { offset: 0x33393, size: 0x8, addend: 0x0, symName: __ZNSt15__new_allocatorIPNSt8__detail15_Hash_node_baseEE8allocateEmPKv, symObjAddr: 0x6874, symBinAddr: 0x100006FBC, symSize: 0x7C }
  - { offset: 0x3341B, size: 0x8, addend: 0x0, symName: __ZSt12construct_atIxJxEEDTgsnwcvPvLi0E_T_pispcl7declvalIT0_EEEEPS1_DpOS2_, symObjAddr: 0x682C, symBinAddr: 0x100006F74, symSize: 0x48 }
  - { offset: 0x3346E, size: 0x8, addend: 0x0, symName: __ZSt7forwardIxEOT_RNSt16remove_referenceIS0_E4typeE, symObjAddr: 0x6818, symBinAddr: 0x100006F60, symSize: 0x14 }
  - { offset: 0x334A0, size: 0x8, addend: 0x0, symName: __ZNSt11__copy_moveILb0ELb1ESt26random_access_iterator_tagE8__copy_mIKxxEEPT0_PT_S7_S5_, symObjAddr: 0x6788, symBinAddr: 0x100006ED0, symSize: 0x90 }
  - { offset: 0x3350F, size: 0x8, addend: 0x0, symName: __ZNSt11__copy_moveILb0ELb0ESt26random_access_iterator_tagE8__copy_mIPKxPxEET0_T_S7_S6_, symObjAddr: 0x6714, symBinAddr: 0x100006E5C, symSize: 0x74 }
  - { offset: 0x335A5, size: 0x8, addend: 0x0, symName: __ZSt7forwardIRKiEOT_RNSt16remove_referenceIS2_E4typeE, symObjAddr: 0x6700, symBinAddr: 0x100006E48, symSize: 0x14 }
  - { offset: 0x33601, size: 0x8, addend: 0x0, symName: __ZSt7forwardIOiEOT_RNSt16remove_referenceIS1_E4typeE, symObjAddr: 0x66EC, symBinAddr: 0x100006E34, symSize: 0x14 }
  - { offset: 0x3363A, size: 0x8, addend: 0x0, symName: __ZSt11__addressofINSt8__detail10_Hash_nodeISt4pairIKiiELb0EEEEPT_RS6_, symObjAddr: 0x66D8, symBinAddr: 0x100006E20, symSize: 0x14 }
  - { offset: 0x33711, size: 0x8, addend: 0x0, symName: __ZSt4moveIRxEONSt16remove_referenceIT_E4typeEOS2_, symObjAddr: 0x66C4, symBinAddr: 0x100006E0C, symSize: 0x14 }
  - { offset: 0x33743, size: 0x8, addend: 0x0, symName: __ZSt14__copy_move_a2ILb0EPKxPxET1_T0_S4_S3_, symObjAddr: 0x6670, symBinAddr: 0x100006DB8, symSize: 0x54 }
  - { offset: 0x337FA, size: 0x8, addend: 0x0, symName: __ZNSt4pairIKiiEC1IJRS0_EJEEESt21piecewise_construct_tSt5tupleIJDpT_EES5_IJDpT0_EE, symObjAddr: 0x6634, symBinAddr: 0x100006D7C, symSize: 0x3C }
  - { offset: 0x33848, size: 0x8, addend: 0x0, symName: __ZNSt10_Head_baseILm0ERKiLb0EE7_M_headERS2_, symObjAddr: 0x661C, symBinAddr: 0x100006D64, symSize: 0x18 }
  - { offset: 0x33871, size: 0x8, addend: 0x0, symName: __ZNSt11_Tuple_implILm0EJRKiEE7_M_headERS2_, symObjAddr: 0x6600, symBinAddr: 0x100006D48, symSize: 0x1C }
  - { offset: 0x3389B, size: 0x8, addend: 0x0, symName: __ZSt12__get_helperILm0ERKiJEERT0_RSt11_Tuple_implIXT_EJS2_DpT1_EE, symObjAddr: 0x65E4, symBinAddr: 0x100006D2C, symSize: 0x1C }
  - { offset: 0x338DD, size: 0x8, addend: 0x0, symName: __ZSt3getILm0EJRKiEERNSt13tuple_elementIXT_ESt5tupleIJDpT0_EEE4typeERS6_, symObjAddr: 0x65C8, symBinAddr: 0x100006D10, symSize: 0x1C }
  - { offset: 0x33989, size: 0x8, addend: 0x0, symName: __ZNSt4pairIKiiEC1IJRS0_EJLm0EEJEJEEERSt5tupleIJDpT_EERS4_IJDpT1_EESt12_Index_tupleIJXspT0_EEESD_IJXspT2_EEE, symObjAddr: 0x6580, symBinAddr: 0x100006CC8, symSize: 0x48 }
  - { offset: 0x33A24, size: 0x8, addend: 0x0, symName: __ZNSt11_Tuple_implILm0EJRKiEEC2EOS2_, symObjAddr: 0x6558, symBinAddr: 0x100006CA0, symSize: 0x28 }
  - { offset: 0x33A53, size: 0x8, addend: 0x0, symName: __ZNK9__gnu_cxx16__aligned_bufferISt4pairIKiiEE7_M_addrEv, symObjAddr: 0x6544, symBinAddr: 0x100006C8C, symSize: 0x14 }
  - { offset: 0x33A79, size: 0x8, addend: 0x0, symName: __ZSt12__to_addressIPNSt8__detail15_Hash_node_baseEEPT_S4_, symObjAddr: 0x6530, symBinAddr: 0x100006C78, symSize: 0x14 }
  - { offset: 0x33AD3, size: 0x8, addend: 0x0, symName: __ZNSt15__new_allocatorINSt8__detail10_Hash_nodeISt4pairIKiiELb0EEEE10deallocateEPS5_m, symObjAddr: 0x6500, symBinAddr: 0x100006C48, symSize: 0x30 }
  - { offset: 0x33B68, size: 0x8, addend: 0x0, symName: __ZNSt4pairIKiiEC1IJOiEJEEESt21piecewise_construct_tSt5tupleIJDpT_EES5_IJDpT0_EE, symObjAddr: 0x64C4, symBinAddr: 0x100006C0C, symSize: 0x3C }
  - { offset: 0x33BB6, size: 0x8, addend: 0x0, symName: __ZNSt10_Head_baseILm0EOiLb0EE7_M_headERS1_, symObjAddr: 0x64AC, symBinAddr: 0x100006BF4, symSize: 0x18 }
  - { offset: 0x33BDF, size: 0x8, addend: 0x0, symName: __ZNSt11_Tuple_implILm0EJOiEE7_M_headERS1_, symObjAddr: 0x6490, symBinAddr: 0x100006BD8, symSize: 0x1C }
  - { offset: 0x33C09, size: 0x8, addend: 0x0, symName: __ZSt12__get_helperILm0EOiJEERT0_RSt11_Tuple_implIXT_EJS1_DpT1_EE, symObjAddr: 0x6474, symBinAddr: 0x100006BBC, symSize: 0x1C }
  - { offset: 0x33C4B, size: 0x8, addend: 0x0, symName: __ZSt3getILm0EJOiEERNSt13tuple_elementIXT_ESt5tupleIJDpT0_EEE4typeERS5_, symObjAddr: 0x6458, symBinAddr: 0x100006BA0, symSize: 0x1C }
  - { offset: 0x33CF7, size: 0x8, addend: 0x0, symName: __ZNSt4pairIKiiEC1IJOiEJLm0EEJEJEEERSt5tupleIJDpT_EERS4_IJDpT1_EESt12_Index_tupleIJXspT0_EEESD_IJXspT2_EEE, symObjAddr: 0x6410, symBinAddr: 0x100006B58, symSize: 0x48 }
  - { offset: 0x33D92, size: 0x8, addend: 0x0, symName: __ZNSt11_Tuple_implILm0EJOiEEC2EOS1_, symObjAddr: 0x63E8, symBinAddr: 0x100006B30, symSize: 0x28 }
  - { offset: 0x33DC1, size: 0x8, addend: 0x0, symName: __ZNSt15__new_allocatorIPNSt8__detail15_Hash_node_baseEE10deallocateEPS2_m, symObjAddr: 0x63B8, symBinAddr: 0x100006B00, symSize: 0x30 }
  - { offset: 0x33E0E, size: 0x8, addend: 0x0, symName: __ZSt11__addressofIPNSt8__detail15_Hash_node_baseEEPT_RS3_, symObjAddr: 0x63A4, symBinAddr: 0x100006AEC, symSize: 0x14 }
  - { offset: 0x33E40, size: 0x8, addend: 0x0, symName: __ZSt9addressofINSt8__detail10_Hash_nodeISt4pairIKiiELb0EEEEPT_RS6_, symObjAddr: 0x6388, symBinAddr: 0x100006AD0, symSize: 0x1C }
  - { offset: 0x33E72, size: 0x8, addend: 0x0, symName: __ZSt19__relocate_object_aISt6vectorIxSaIxEES2_SaIS2_EEvPT_PT0_RT1_, symObjAddr: 0x6310, symBinAddr: 0x100006A58, symSize: 0x78 }
  - { offset: 0x33F41, size: 0x8, addend: 0x0, symName: __ZNSt15__new_allocatorISt6vectorIxSaIxEEE8allocateEmPKv, symObjAddr: 0x6280, symBinAddr: 0x1000069C8, symSize: 0x90 }
  - { offset: 0x33FC9, size: 0x8, addend: 0x0, symName: __ZSt19__relocate_object_aIxxSaIxEEvPT_PT0_RT1_, symObjAddr: 0x6208, symBinAddr: 0x100006950, symSize: 0x78 }
  - { offset: 0x34098, size: 0x8, addend: 0x0, symName: __ZNK9__gnu_cxx17__normal_iteratorIPxvEdeEv, symObjAddr: 0x61F0, symBinAddr: 0x100006938, symSize: 0x18 }
  - { offset: 0x340C2, size: 0x8, addend: 0x0, symName: __ZN9__gnu_cxx17__normal_iteratorIPxvEppEv, symObjAddr: 0x61C8, symBinAddr: 0x100006910, symSize: 0x28 }
  - { offset: 0x340E8, size: 0x8, addend: 0x0, symName: __ZSt12__niter_wrapIPxET_RKS1_S1_, symObjAddr: 0x61B0, symBinAddr: 0x1000068F8, symSize: 0x18 }
  - { offset: 0x34124, size: 0x8, addend: 0x0, symName: __ZSt14__copy_move_a1ILb0EPKxPxET1_T0_S4_S3_, symObjAddr: 0x6184, symBinAddr: 0x1000068CC, symSize: 0x2C }
  - { offset: 0x3418C, size: 0x8, addend: 0x0, symName: __ZSt12__niter_baseIPKxSt6vectorIxSaIxEEET_N9__gnu_cxx17__normal_iteratorIS5_T0_EE, symObjAddr: 0x6164, symBinAddr: 0x1000068AC, symSize: 0x20 }
  - { offset: 0x341D6, size: 0x8, addend: 0x0, symName: __ZSt12construct_atISt4pairIKiiEJRKSt21piecewise_construct_tSt5tupleIJRS1_EES6_IJEEEEDTgsnwcvPvLi0E_T_pispcl7declvalIT0_EEEEPSB_DpOSC_, symObjAddr: 0x60AC, symBinAddr: 0x1000067F4, symSize: 0xB8 }
  - { offset: 0x34261, size: 0x8, addend: 0x0, symName: __ZNSt5tupleIJRKiEEC1EOS2_, symObjAddr: 0x6084, symBinAddr: 0x1000067CC, symSize: 0x28 }
  - { offset: 0x34290, size: 0x8, addend: 0x0, symName: __ZNK9__gnu_cxx16__aligned_bufferISt4pairIKiiEE6_M_ptrEv, symObjAddr: 0x6068, symBinAddr: 0x1000067B0, symSize: 0x1C }
  - { offset: 0x342BA, size: 0x8, addend: 0x0, symName: __ZNSt8__detail16_Hashtable_allocISaINS_10_Hash_nodeISt4pairIKiiELb0EEEEE19_M_allocate_bucketsEm, symObjAddr: 0x5F68, symBinAddr: 0x1000066B0, symSize: 0x100 }
  - { offset: 0x34455, size: 0x8, addend: 0x0, symName: __ZSt12construct_atISt4pairIKiiEJRKSt21piecewise_construct_tSt5tupleIJOiEES6_IJEEEEDTgsnwcvPvLi0E_T_pispcl7declvalIT0_EEEEPSB_DpOSC_, symObjAddr: 0x5EB0, symBinAddr: 0x1000065F8, symSize: 0xB8 }
  - { offset: 0x344E0, size: 0x8, addend: 0x0, symName: __ZNSt5tupleIJOiEEC1EOS1_, symObjAddr: 0x5E88, symBinAddr: 0x1000065D0, symSize: 0x28 }
  - { offset: 0x3453F, size: 0x8, addend: 0x0, symName: __ZNSt10_Head_baseILm0EOiLb0EEC2IiEEOT_, symObjAddr: 0x5E58, symBinAddr: 0x1000065A0, symSize: 0x30 }
  - { offset: 0x34577, size: 0x8, addend: 0x0, symName: __ZN9__gnu_cxx16__aligned_bufferISt4pairIKiiEE7_M_addrEv, symObjAddr: 0x5E44, symBinAddr: 0x10000658C, symSize: 0x14 }
  - { offset: 0x3459D, size: 0x8, addend: 0x0, symName: __ZNSt8__detail15_Hashtable_baseIiSt4pairIKiiENS_10_Select1stESt8equal_toIiESt4hashIiENS_18_Mod_range_hashingENS_20_Default_ranged_hashENS_17_Hashtable_traitsILb0ELb0ELb1EEEE9_S_equalsEmRKNS_21_Hash_node_code_cacheILb0EEE, symObjAddr: 0x5E2C, symBinAddr: 0x100006574, symSize: 0x18 }
  - { offset: 0x3460E, size: 0x8, addend: 0x0, symName: __ZSt9addressofIPNSt8__detail15_Hash_node_baseEEPT_RS3_, symObjAddr: 0x5E10, symBinAddr: 0x100006558, symSize: 0x1C }
  - { offset: 0x34640, size: 0x8, addend: 0x0, symName: __ZNSt19__ptr_traits_ptr_toIPNSt8__detail10_Hash_nodeISt4pairIKiiELb0EEES5_Lb0EE10pointer_toERS5_, symObjAddr: 0x5DF4, symBinAddr: 0x10000653C, symSize: 0x1C }
  - { offset: 0x34669, size: 0x8, addend: 0x0, symName: __ZSt10destroy_atISt4pairIKiiEEvPT_, symObjAddr: 0x5DE0, symBinAddr: 0x100006528, symSize: 0x14 }
  - { offset: 0x3469F, size: 0x8, addend: 0x0, symName: __ZNSt8__detail21_Hashtable_ebo_helperILi0ESaINS_10_Hash_nodeISt4pairIKiiELb0EEEELb1EE6_M_getEv, symObjAddr: 0x5DCC, symBinAddr: 0x100006514, symSize: 0x14 }
  - { offset: 0x346C5, size: 0x8, addend: 0x0, symName: __ZSt14__relocate_a_1IPSt6vectorIxSaIxEES3_SaIS2_EET0_T_S6_S5_RT1_, symObjAddr: 0x5D48, symBinAddr: 0x100006490, symSize: 0x84 }
  - { offset: 0x3474E, size: 0x8, addend: 0x0, symName: __ZSt12__niter_baseIPSt6vectorIxSaIxEEET_S4_, symObjAddr: 0x5D34, symBinAddr: 0x10000647C, symSize: 0x14 }
  - { offset: 0x347A4, size: 0x8, addend: 0x0, symName: __ZSt10destroy_atISt6vectorIxSaIxEEEvPT_, symObjAddr: 0x5D14, symBinAddr: 0x10000645C, symSize: 0x20 }
  - { offset: 0x347DA, size: 0x8, addend: 0x0, symName: __ZNK9__gnu_cxx17__normal_iteratorIPxvE4baseEv, symObjAddr: 0x5D00, symBinAddr: 0x100006448, symSize: 0x14 }
  - { offset: 0x34800, size: 0x8, addend: 0x0, symName: __ZSt14__relocate_a_1IPxN9__gnu_cxx17__normal_iteratorIS0_vEESaIxEET0_T_S6_S5_RT1_, symObjAddr: 0x5C7C, symBinAddr: 0x1000063C4, symSize: 0x84 }
  - { offset: 0x3488D, size: 0x8, addend: 0x0, symName: __ZNSt15__new_allocatorIxE8allocateEmPKv, symObjAddr: 0x5C00, symBinAddr: 0x100006348, symSize: 0x7C }
  - { offset: 0x34915, size: 0x8, addend: 0x0, symName: __ZSt10destroy_atIxEvPT_, symObjAddr: 0x5BEC, symBinAddr: 0x100006334, symSize: 0x14 }
  - { offset: 0x34947, size: 0x8, addend: 0x0, symName: __ZSt13__copy_move_aILb0EN9__gnu_cxx17__normal_iteratorIPKxSt6vectorIxSaIxEEEEPxET1_T0_SA_S9_, symObjAddr: 0x5B8C, symBinAddr: 0x1000062D4, symSize: 0x60 }
  - { offset: 0x349AF, size: 0x8, addend: 0x0, symName: __ZSt12__miter_baseIN9__gnu_cxx17__normal_iteratorIPKxSt6vectorIxSaIxEEEEET_S8_, symObjAddr: 0x5B78, symBinAddr: 0x1000062C0, symSize: 0x14 }
  - { offset: 0x349E6, size: 0x8, addend: 0x0, symName: __ZNSt10_HashtableIiSt4pairIKiiESaIS2_ENSt8__detail10_Select1stESt8equal_toIiESt4hashIiENS4_18_Mod_range_hashingENS4_20_Default_ranged_hashENS4_20_Prime_rehash_policyENS4_17_Hashtable_traitsILb0ELb0ELb1EEEE22_M_remove_bucket_beginEmPNS4_10_Hash_nodeIS2_Lb0EEEm, symObjAddr: 0x5AD8, symBinAddr: 0x100006220, symSize: 0xA0 }
  - { offset: 0x34AC2, size: 0x8, addend: 0x0, symName: __ZNSt10_Head_baseILm0ERKiLb0EEC2ES1_, symObjAddr: 0x5AB4, symBinAddr: 0x1000061FC, symSize: 0x24 }
  - { offset: 0x34AF4, size: 0x8, addend: 0x0, symName: __ZSt7forwardIRKSt4pairIKiiEEOT_RNSt16remove_referenceIS5_E4typeE, symObjAddr: 0x5AA0, symBinAddr: 0x1000061E8, symSize: 0x14 }
  - { offset: 0x34B40, size: 0x8, addend: 0x0, symName: __ZNKSt8__detail21_Hashtable_ebo_helperILi0ESt8equal_toIiELb1EE7_M_cgetEv, symObjAddr: 0x5A8C, symBinAddr: 0x1000061D4, symSize: 0x14 }
  - { offset: 0x34B6A, size: 0x8, addend: 0x0, symName: __ZNSt15__new_allocatorIcE8allocateEmPKv, symObjAddr: 0x5A28, symBinAddr: 0x100006170, symSize: 0x64 }
  - { offset: 0x34BF6, size: 0x8, addend: 0x0, symName: __ZNKSt8__detail15_Hash_code_baseIiSt4pairIKiiENS_10_Select1stESt4hashIiENS_18_Mod_range_hashingENS_20_Default_ranged_hashELb0EE15_M_bucket_indexERKNS_16_Hash_node_valueIS3_Lb0EEEm, symObjAddr: 0x59C4, symBinAddr: 0x10000610C, symSize: 0x64 }
  - { offset: 0x34C8A, size: 0x8, addend: 0x0, symName: __ZNSt10_HashtableIiSt4pairIKiiESaIS2_ENSt8__detail10_Select1stESt8equal_toIiESt4hashIiENS4_18_Mod_range_hashingENS4_20_Default_ranged_hashENS4_20_Prime_rehash_policyENS4_17_Hashtable_traitsILb0ELb0ELb1EEEE19_M_allocate_bucketsEm, symObjAddr: 0x596C, symBinAddr: 0x1000060B4, symSize: 0x58 }
  - { offset: 0x34CC1, size: 0x8, addend: 0x0, symName: __ZSt11__addressofINSt8__detail20_Prime_rehash_policyEEPT_RS2_, symObjAddr: 0x5958, symBinAddr: 0x1000060A0, symSize: 0x14 }
  - { offset: 0x34D7D, size: 0x8, addend: 0x0, symName: __ZSt12__to_addressINSt8__detail10_Hash_nodeISt4pairIKiiELb0EEEEPT_S7_, symObjAddr: 0x5944, symBinAddr: 0x10000608C, symSize: 0x14 }
  - { offset: 0x34DB3, size: 0x8, addend: 0x0, symName: __ZNSt15__new_allocatorINSt8__detail10_Hash_nodeISt4pairIKiiELb0EEEE8allocateEmPKv, symObjAddr: 0x58C8, symBinAddr: 0x100006010, symSize: 0x7C }
  - { offset: 0x34E70, size: 0x8, addend: 0x0, symName: __ZNSt11_Tuple_implILm0EJOiEEC2IiEEOT_, symObjAddr: 0x588C, symBinAddr: 0x100005FD4, symSize: 0x3C }
  - { offset: 0x34EA8, size: 0x8, addend: 0x0, symName: __ZN9__gnu_cxx16__aligned_bufferISt4pairIKiiEE6_M_ptrEv, symObjAddr: 0x5870, symBinAddr: 0x100005FB8, symSize: 0x1C }
  - { offset: 0x34ED2, size: 0x8, addend: 0x0, symName: __ZNKSt8__detail15_Hashtable_baseIiSt4pairIKiiENS_10_Select1stESt8equal_toIiESt4hashIiENS_18_Mod_range_hashingENS_20_Default_ranged_hashENS_17_Hashtable_traitsILb0ELb0ELb1EEEE9_M_equalsERS2_mRKNS_16_Hash_node_valueIS3_Lb0EEE, symObjAddr: 0x5810, symBinAddr: 0x100005F58, symSize: 0x60 }
  - { offset: 0x34F2F, size: 0x8, addend: 0x0, symName: __ZNKSt8__detail21_Hashtable_ebo_helperILi1ESt4hashIiELb1EE7_M_cgetEv, symObjAddr: 0x57FC, symBinAddr: 0x100005F44, symSize: 0x14 }
  - { offset: 0x34FCB, size: 0x8, addend: 0x0, symName: __ZNSt19__ptr_traits_ptr_toIPPNSt8__detail15_Hash_node_baseES2_Lb0EE10pointer_toERS2_, symObjAddr: 0x57E0, symBinAddr: 0x100005F28, symSize: 0x1C }
  - { offset: 0x34FF8, size: 0x8, addend: 0x0, symName: __ZNSt8__detail16_Hashtable_allocISaINS_10_Hash_nodeISt4pairIKiiELb0EEEEE22_M_deallocate_node_ptrEPS5_, symObjAddr: 0x5754, symBinAddr: 0x100005E9C, symSize: 0x8C }
  - { offset: 0x350F8, size: 0x8, addend: 0x0, symName: __ZNSt8__detail16_Hashtable_allocISaINS_10_Hash_nodeISt4pairIKiiELb0EEEEE17_M_node_allocatorEv, symObjAddr: 0x5738, symBinAddr: 0x100005E80, symSize: 0x1C }
  - { offset: 0x3511E, size: 0x8, addend: 0x0, symName: __ZSt12__relocate_aIPSt6vectorIxSaIxEES3_SaIS2_EET0_T_S6_S5_RT1_, symObjAddr: 0x56DC, symBinAddr: 0x100005E24, symSize: 0x5C }
  - { offset: 0x351BA, size: 0x8, addend: 0x0, symName: __ZSt8_DestroyISt6vectorIxSaIxEEEvPT_, symObjAddr: 0x56BC, symBinAddr: 0x100005E04, symSize: 0x20 }
  - { offset: 0x351EC, size: 0x8, addend: 0x0, symName: __ZSt11__addressofISt6vectorIxSaIxEEEPT_RS3_, symObjAddr: 0x56A8, symBinAddr: 0x100005DF0, symSize: 0x14 }
  - { offset: 0x35222, size: 0x8, addend: 0x0, symName: __ZNSt15__new_allocatorISt6vectorIxSaIxEEE10deallocateEPS2_m, symObjAddr: 0x566C, symBinAddr: 0x100005DB4, symSize: 0x3C }
  - { offset: 0x35268, size: 0x8, addend: 0x0, symName: __ZSt14__relocate_a_1IxxENSt9enable_ifIXsrSt24__is_bitwise_relocatableIT_vE5valueEPS2_E4typeES4_S4_S4_RSaIT0_E, symObjAddr: 0x55C0, symBinAddr: 0x100005D08, symSize: 0xAC }
  - { offset: 0x35338, size: 0x8, addend: 0x0, symName: __ZN9__gnu_cxx17__normal_iteratorIPxvEC1ERKS1_, symObjAddr: 0x5598, symBinAddr: 0x100005CE0, symSize: 0x28 }
  - { offset: 0x35363, size: 0x8, addend: 0x0, symName: __ZSt12__niter_baseIPxET_S1_, symObjAddr: 0x5584, symBinAddr: 0x100005CCC, symSize: 0x14 }
  - { offset: 0x353BD, size: 0x8, addend: 0x0, symName: __ZNSt15__new_allocatorIxE10deallocateEPxm, symObjAddr: 0x5554, symBinAddr: 0x100005C9C, symSize: 0x30 }
  - { offset: 0x35403, size: 0x8, addend: 0x0, symName: __ZSt8_DestroyIxEvPT_, symObjAddr: 0x5534, symBinAddr: 0x100005C7C, symSize: 0x20 }
  - { offset: 0x35435, size: 0x8, addend: 0x0, symName: __ZSt4copyIN9__gnu_cxx17__normal_iteratorIPKxSt6vectorIxSaIxEEEEPxET0_T_SA_S9_, symObjAddr: 0x54EC, symBinAddr: 0x100005C34, symSize: 0x48 }
  - { offset: 0x35497, size: 0x8, addend: 0x0, symName: __ZNSt15__new_allocatorIcE10deallocateEPcm, symObjAddr: 0x54C4, symBinAddr: 0x100005C0C, symSize: 0x28 }
  - { offset: 0x354DD, size: 0x8, addend: 0x0, symName: __ZSt11__addressofIKcEPT_RS1_, symObjAddr: 0x54B0, symBinAddr: 0x100005BF8, symSize: 0x14 }
  - { offset: 0x35513, size: 0x8, addend: 0x0, symName: __ZNSt10_HashtableIiSt4pairIKiiESaIS2_ENSt8__detail10_Select1stESt8equal_toIiESt4hashIiENS4_18_Mod_range_hashingENS4_20_Default_ranged_hashENS4_20_Prime_rehash_policyENS4_17_Hashtable_traitsILb0ELb0ELb1EEEE8_M_eraseEmPNS4_15_Hash_node_baseEPNS4_10_Hash_nodeIS2_Lb0EEE, symObjAddr: 0x5370, symBinAddr: 0x100005AB8, symSize: 0x140 }
  - { offset: 0x355A5, size: 0x8, addend: 0x0, symName: __ZNKSt10_HashtableIiSt4pairIKiiESaIS2_ENSt8__detail10_Select1stESt8equal_toIiESt4hashIiENS4_18_Mod_range_hashingENS4_20_Default_ranged_hashENS4_20_Prime_rehash_policyENS4_17_Hashtable_traitsILb0ELb0ELb1EEEE15_M_bucket_indexERKNS4_16_Hash_node_valueIS2_Lb0EEE, symObjAddr: 0x5340, symBinAddr: 0x100005A88, symSize: 0x30 }
  - { offset: 0x355E0, size: 0x8, addend: 0x0, symName: __ZNSt10_HashtableIiSt4pairIKiiESaIS2_ENSt8__detail10_Select1stESt8equal_toIiESt4hashIiENS4_18_Mod_range_hashingENS4_20_Default_ranged_hashENS4_20_Prime_rehash_policyENS4_17_Hashtable_traitsILb0ELb0ELb1EEEE19_M_find_before_nodeERS1_, symObjAddr: 0x52A4, symBinAddr: 0x1000059EC, symSize: 0x9C }
  - { offset: 0x35650, size: 0x8, addend: 0x0, symName: __ZNSt8__detail16_Hashtable_allocISaINS_10_Hash_nodeISt4pairIKiiELb0EEEEE16_M_allocate_nodeIJRKSt21piecewise_construct_tSt5tupleIJRS3_EESC_IJEEEEEPS5_DpOT_, symObjAddr: 0x50A0, symBinAddr: 0x1000057E8, symSize: 0x204 }
  - { offset: 0x3585A, size: 0x8, addend: 0x0, symName: __ZSt7forwardISt5tupleIJRKiEEEOT_RNSt16remove_referenceIS4_E4typeE, symObjAddr: 0x508C, symBinAddr: 0x1000057D4, symSize: 0x14 }
  - { offset: 0x358B8, size: 0x8, addend: 0x0, symName: __ZNSt11_Tuple_implILm0EJRKiEEC2ES1_, symObjAddr: 0x5064, symBinAddr: 0x1000057AC, symSize: 0x28 }
  - { offset: 0x3590F, size: 0x8, addend: 0x0, symName: __ZNSt8__detail19_Node_iterator_baseISt4pairIKiiELb0EEC2EPNS_10_Hash_nodeIS3_Lb0EEE, symObjAddr: 0x5040, symBinAddr: 0x100005788, symSize: 0x24 }
  - { offset: 0x3593E, size: 0x8, addend: 0x0, symName: __ZNKSt8equal_toIiEclERKiS2_, symObjAddr: 0x500C, symBinAddr: 0x100005754, symSize: 0x34 }
  - { offset: 0x35996, size: 0x8, addend: 0x0, symName: __ZNKSt8__detail10_Select1stclIRKSt4pairIKiiEEEONS0_10__1st_typeIT_E4typeEOS8_, symObjAddr: 0x4FEC, symBinAddr: 0x100005734, symSize: 0x20 }
  - { offset: 0x359EF, size: 0x8, addend: 0x0, symName: __ZNKSt8__detail15_Hashtable_baseIiSt4pairIKiiENS_10_Select1stESt8equal_toIiESt4hashIiENS_18_Mod_range_hashingENS_20_Default_ranged_hashENS_17_Hashtable_traitsILb0ELb0ELb1EEEE5_M_eqEv, symObjAddr: 0x4FD0, symBinAddr: 0x100005718, symSize: 0x1C }
  - { offset: 0x35A15, size: 0x8, addend: 0x0, symName: __ZNSt8__detail22_Hashtable_hash_traitsISt4hashIiEE22__small_size_thresholdEv, symObjAddr: 0x4FC8, symBinAddr: 0x100005710, symSize: 0x8 }
  - { offset: 0x35A7C, size: 0x8, addend: 0x0, symName: __ZNSt8__detail14_Node_iteratorISt4pairIKiiELb0ELb0EEC1EPNS_10_Hash_nodeIS3_Lb0EEE, symObjAddr: 0x4FA0, symBinAddr: 0x1000056E8, symSize: 0x28 }
  - { offset: 0x35AAB, size: 0x8, addend: 0x0, symName: __ZNSt10_HashtableIiSt4pairIKiiESaIS2_ENSt8__detail10_Select1stESt8equal_toIiESt4hashIiENS4_18_Mod_range_hashingENS4_20_Default_ranged_hashENS4_20_Prime_rehash_policyENS4_17_Hashtable_traitsILb0ELb0ELb1EEEE22_M_insert_bucket_beginEmPNS4_10_Hash_nodeIS2_Lb0EEE, symObjAddr: 0x4E94, symBinAddr: 0x1000055DC, symSize: 0x10C }
  - { offset: 0x35AF7, size: 0x8, addend: 0x0, symName: __ZNKSt8__detail15_Hash_code_baseIiSt4pairIKiiENS_10_Select1stESt4hashIiENS_18_Mod_range_hashingENS_20_Default_ranged_hashELb0EE13_M_store_codeERNS_21_Hash_node_code_cacheILb0EEEm, symObjAddr: 0x4E78, symBinAddr: 0x1000055C0, symSize: 0x1C }
  - { offset: 0x35B33, size: 0x8, addend: 0x0, symName: __ZNSt10_HashtableIiSt4pairIKiiESaIS2_ENSt8__detail10_Select1stESt8equal_toIiESt4hashIiENS4_18_Mod_range_hashingENS4_20_Default_ranged_hashENS4_20_Prime_rehash_policyENS4_17_Hashtable_traitsILb0ELb0ELb1EEEE9_M_rehashEmSt17integral_constantIbLb1EE, symObjAddr: 0x4D0C, symBinAddr: 0x100005454, symSize: 0x16C }
  - { offset: 0x35C04, size: 0x8, addend: 0x0, symName: __ZNSt8__detail17_RehashStateGuardINS_20_Prime_rehash_policyEED1Ev, symObjAddr: 0x4CC8, symBinAddr: 0x100005410, symSize: 0x44 }
  - { offset: 0x35C52, size: 0x8, addend: 0x0, symName: __ZNSt8__detail17_RehashStateGuardINS_20_Prime_rehash_policyEEC1ERS1_, symObjAddr: 0x4C84, symBinAddr: 0x1000053CC, symSize: 0x44 }
  - { offset: 0x35C81, size: 0x8, addend: 0x0, symName: __ZNSt8__detail16_Hashtable_allocISaINS_10_Hash_nodeISt4pairIKiiELb0EEEEE16_M_allocate_nodeIJRKSt21piecewise_construct_tSt5tupleIJOiEESC_IJEEEEEPS5_DpOT_, symObjAddr: 0x4A80, symBinAddr: 0x1000051C8, symSize: 0x204 }
  - { offset: 0x35EA6, size: 0x8, addend: 0x0, symName: __ZNSt8__detail10_Hash_nodeISt4pairIKiiELb0EEC1Ev, symObjAddr: 0x4A60, symBinAddr: 0x1000051A8, symSize: 0x20 }
  - { offset: 0x35F16, size: 0x8, addend: 0x0, symName: __ZSt7forwardISt5tupleIJEEEOT_RNSt16remove_referenceIS2_E4typeE, symObjAddr: 0x4A4C, symBinAddr: 0x100005194, symSize: 0x14 }
  - { offset: 0x35F4F, size: 0x8, addend: 0x0, symName: __ZSt7forwardISt5tupleIJOiEEEOT_RNSt16remove_referenceIS3_E4typeE, symObjAddr: 0x4A38, symBinAddr: 0x100005180, symSize: 0x14 }
  - { offset: 0x35F88, size: 0x8, addend: 0x0, symName: __ZSt7forwardIRKSt21piecewise_construct_tEOT_RNSt16remove_referenceIS3_E4typeE, symObjAddr: 0x4A24, symBinAddr: 0x10000516C, symSize: 0x14 }
  - { offset: 0x35FEF, size: 0x8, addend: 0x0, symName: __ZNSt5tupleIJOiEEC1IJiEEEDpOT_, symObjAddr: 0x49E8, symBinAddr: 0x100005130, symSize: 0x3C }
  - { offset: 0x36046, size: 0x8, addend: 0x0, symName: __ZNKSt10_HashtableIiSt4pairIKiiESaIS2_ENSt8__detail10_Select1stESt8equal_toIiESt4hashIiENS4_18_Mod_range_hashingENS4_20_Default_ranged_hashENS4_20_Prime_rehash_policyENS4_17_Hashtable_traitsILb0ELb0ELb1EEEE19_M_find_before_nodeEmRS1_m, symObjAddr: 0x48EC, symBinAddr: 0x100005034, symSize: 0xFC }
  - { offset: 0x360D8, size: 0x8, addend: 0x0, symName: __ZNKSt8__detail15_Hash_code_baseIiSt4pairIKiiENS_10_Select1stESt4hashIiENS_18_Mod_range_hashingENS_20_Default_ranged_hashELb0EE15_M_bucket_indexEmm, symObjAddr: 0x48C0, symBinAddr: 0x100005008, symSize: 0x2C }
  - { offset: 0x36124, size: 0x8, addend: 0x0, symName: __ZNKSt8__detail15_Hash_code_baseIiSt4pairIKiiENS_10_Select1stESt4hashIiENS_18_Mod_range_hashingENS_20_Default_ranged_hashELb0EE7_M_hashEv, symObjAddr: 0x48A4, symBinAddr: 0x100004FEC, symSize: 0x1C }
  - { offset: 0x3614E, size: 0x8, addend: 0x0, symName: __ZNSt8__detail16_Hashtable_allocISaINS_10_Hash_nodeISt4pairIKiiELb0EEEEE21_M_deallocate_bucketsEPPNS_15_Hash_node_baseEm, symObjAddr: 0x4800, symBinAddr: 0x100004F48, symSize: 0xA4 }
  - { offset: 0x362B0, size: 0x8, addend: 0x0, symName: __ZNKSt10_HashtableIiSt4pairIKiiESaIS2_ENSt8__detail10_Select1stESt8equal_toIiESt4hashIiENS4_18_Mod_range_hashingENS4_20_Default_ranged_hashENS4_20_Prime_rehash_policyENS4_17_Hashtable_traitsILb0ELb0ELb1EEEE21_M_uses_single_bucketEPPNS4_15_Hash_node_baseE, symObjAddr: 0x47C4, symBinAddr: 0x100004F0C, symSize: 0x3C }
  - { offset: 0x362EB, size: 0x8, addend: 0x0, symName: __ZNSt8__detail16_Hashtable_allocISaINS_10_Hash_nodeISt4pairIKiiELb0EEEEE18_M_deallocate_nodeEPS5_, symObjAddr: 0x475C, symBinAddr: 0x100004EA4, symSize: 0x68 }
  - { offset: 0x36377, size: 0x8, addend: 0x0, symName: __ZNK9__gnu_cxx17__normal_iteratorIPSt6vectorIxSaIxEES1_IS3_SaIS3_EEEdeEv, symObjAddr: 0x4744, symBinAddr: 0x100004E8C, symSize: 0x18 }
  - { offset: 0x363A1, size: 0x8, addend: 0x0, symName: __ZNK9__gnu_cxx17__normal_iteratorIPSt6vectorIxSaIxEES1_IS3_SaIS3_EEEmiEl, symObjAddr: 0x46F4, symBinAddr: 0x100004E3C, symSize: 0x50 }
  - { offset: 0x363D8, size: 0x8, addend: 0x0, symName: __ZNSt6vectorIS_IxSaIxEESaIS1_EE11_S_relocateEPS1_S4_S4_RS2_, symObjAddr: 0x46C0, symBinAddr: 0x100004E08, symSize: 0x34 }
  - { offset: 0x36435, size: 0x8, addend: 0x0, symName: __ZSt12__to_addressISt6vectorIxSaIxEEEPT_S4_, symObjAddr: 0x46AC, symBinAddr: 0x100004DF4, symSize: 0x14 }
  - { offset: 0x3646B, size: 0x8, addend: 0x0, symName: __ZNSt12_Vector_baseISt6vectorIxSaIxEESaIS2_EE11_M_allocateEm, symObjAddr: 0x45D4, symBinAddr: 0x100004D1C, symSize: 0xD8 }
  - { offset: 0x36519, size: 0x8, addend: 0x0, symName: __ZNK9__gnu_cxx17__normal_iteratorIPSt6vectorIxSaIxEES1_IS3_SaIS3_EEE4baseEv, symObjAddr: 0x45C0, symBinAddr: 0x100004D08, symSize: 0x14 }
  - { offset: 0x3653F, size: 0x8, addend: 0x0, symName: __ZSt12construct_atISt6vectorIxSaIxEEJS2_EEDTgsnwcvPvLi0E_T_pispcl7declvalIT0_EEEEPS4_DpOS5_, symObjAddr: 0x4574, symBinAddr: 0x100004CBC, symSize: 0x4C }
  - { offset: 0x3658B, size: 0x8, addend: 0x0, symName: __ZNSt12_Destroy_auxILb0EE9__destroyIPSt6vectorIxSaIxEEEEvT_S6_, symObjAddr: 0x4528, symBinAddr: 0x100004C70, symSize: 0x4C }
  - { offset: 0x365FD, size: 0x8, addend: 0x0, symName: __ZSt12__relocate_aIPxS0_SaIxEET0_T_S3_S2_RT1_, symObjAddr: 0x44CC, symBinAddr: 0x100004C14, symSize: 0x5C }
  - { offset: 0x366C9, size: 0x8, addend: 0x0, symName: __ZNSt12_Destroy_auxILb1EE9__destroyIPxEEvT_S3_, symObjAddr: 0x44B4, symBinAddr: 0x100004BFC, symSize: 0x18 }
  - { offset: 0x366FD, size: 0x8, addend: 0x0, symName: __ZNSt12_Destroy_auxILb0EE9__destroyIPxEEvT_S3_, symObjAddr: 0x4468, symBinAddr: 0x100004BB0, symSize: 0x4C }
  - { offset: 0x3673F, size: 0x8, addend: 0x0, symName: __ZNSt20__uninitialized_copyILb1EE13__uninit_copyIN9__gnu_cxx17__normal_iteratorIPKxSt6vectorIxSaIxEEEEPxEET0_T_SC_SB_, symObjAddr: 0x443C, symBinAddr: 0x100004B84, symSize: 0x2C }
  - { offset: 0x3679A, size: 0x8, addend: 0x0, symName: __ZSt10_ConstructIxJRKxEEvPT_DpOT0_, symObjAddr: 0x43D0, symBinAddr: 0x100004B18, symSize: 0x6C }
  - { offset: 0x36803, size: 0x8, addend: 0x0, symName: __ZNK9__gnu_cxx17__normal_iteratorIPKxSt6vectorIxSaIxEEEdeEv, symObjAddr: 0x43B8, symBinAddr: 0x100004B00, symSize: 0x18 }
  - { offset: 0x36829, size: 0x8, addend: 0x0, symName: __ZSt11__addressofIxEPT_RS0_, symObjAddr: 0x43A4, symBinAddr: 0x100004AEC, symSize: 0x14 }
  - { offset: 0x3685F, size: 0x8, addend: 0x0, symName: __ZN9__gnu_cxx17__normal_iteratorIPKxSt6vectorIxSaIxEEEppEv, symObjAddr: 0x437C, symBinAddr: 0x100004AC4, symSize: 0x28 }
  - { offset: 0x3688D, size: 0x8, addend: 0x0, symName: __ZNSt7__cxx1112basic_stringIcSt11char_traitsIcESaIcEE9_M_mutateEmmPKcm, symObjAddr: 0x4224, symBinAddr: 0x10000496C, symSize: 0x158 }
  - { offset: 0x36963, size: 0x8, addend: 0x0, symName: __ZNSt7__cxx1112basic_stringIcSt11char_traitsIcESaIcEE9_M_appendEPKcm, symObjAddr: 0x415C, symBinAddr: 0x1000048A4, symSize: 0xC8 }
  - { offset: 0x369C0, size: 0x8, addend: 0x0, symName: __ZNKSt7__cxx1112basic_stringIcSt11char_traitsIcESaIcEE15_M_check_lengthEmmPKc, symObjAddr: 0x40E8, symBinAddr: 0x100004830, symSize: 0x74 }
  - { offset: 0x36A19, size: 0x8, addend: 0x0, symName: __ZSt9addressofIKcEPT_RS1_, symObjAddr: 0x40CC, symBinAddr: 0x100004814, symSize: 0x1C }
  - { offset: 0x36A4F, size: 0x8, addend: 0x0, symName: __ZNSt10_HashtableIiSt4pairIKiiESaIS2_ENSt8__detail10_Select1stESt8equal_toIiESt4hashIiENS4_18_Mod_range_hashingENS4_20_Default_ranged_hashENS4_20_Prime_rehash_policyENS4_17_Hashtable_traitsILb0ELb0ELb1EEEE8_M_eraseESt17integral_constantIbLb1EERS1_, symObjAddr: 0x3FC4, symBinAddr: 0x10000470C, symSize: 0x108 }
  - { offset: 0x36B3D, size: 0x8, addend: 0x0, symName: __ZNSt10_HashtableIiSt4pairIKiiESaIS2_ENSt8__detail10_Select1stESt8equal_toIiESt4hashIiENS4_18_Mod_range_hashingENS4_20_Default_ranged_hashENS4_20_Prime_rehash_policyENS4_17_Hashtable_traitsILb0ELb0ELb1EEEE12_Scoped_nodeC1IJRKSt21piecewise_construct_tSt5tupleIJRS1_EESL_IJEEEEEPNS4_16_Hashtable_allocISaINS4_10_Hash_nodeIS2_Lb0EEEEEEDpOT_, symObjAddr: 0x3F3C, symBinAddr: 0x100004684, symSize: 0x88 }
  - { offset: 0x36BCB, size: 0x8, addend: 0x0, symName: __ZNSt5tupleIJRKiEEC1ES1_Qcl15__constructibleIDpRKT_EE, symObjAddr: 0x3F14, symBinAddr: 0x10000465C, symSize: 0x28 }
  - { offset: 0x36C22, size: 0x8, addend: 0x0, symName: __ZNSt8__detail20_Node_const_iteratorISt4pairIKiiELb0ELb0EEC1EPNS_10_Hash_nodeIS3_Lb0EEE, symObjAddr: 0x3EEC, symBinAddr: 0x100004634, symSize: 0x28 }
  - { offset: 0x36C51, size: 0x8, addend: 0x0, symName: __ZNKSt8__detail15_Hashtable_baseIiSt4pairIKiiENS_10_Select1stESt8equal_toIiESt4hashIiENS_18_Mod_range_hashingENS_20_Default_ranged_hashENS_17_Hashtable_traitsILb0ELb0ELb1EEEE13_M_key_equalsERS2_RKNS_16_Hash_node_valueIS3_Lb0EEE, symObjAddr: 0x3E80, symBinAddr: 0x1000045C8, symSize: 0x6C }
  - { offset: 0x36CE5, size: 0x8, addend: 0x0, symName: __ZNKSt8__detail10_Hash_nodeISt4pairIKiiELb0EE7_M_nextEv, symObjAddr: 0x3E68, symBinAddr: 0x1000045B0, symSize: 0x18 }
  - { offset: 0x36D0B, size: 0x8, addend: 0x0, symName: __ZNSt10_HashtableIiSt4pairIKiiESaIS2_ENSt8__detail10_Select1stESt8equal_toIiESt4hashIiENS4_18_Mod_range_hashingENS4_20_Default_ranged_hashENS4_20_Prime_rehash_policyENS4_17_Hashtable_traitsILb0ELb0ELb1EEEE22__small_size_thresholdEv, symObjAddr: 0x3E54, symBinAddr: 0x10000459C, symSize: 0x14 }
  - { offset: 0x36D27, size: 0x8, addend: 0x0, symName: __ZNKSt10_HashtableIiSt4pairIKiiESaIS2_ENSt8__detail10_Select1stESt8equal_toIiESt4hashIiENS4_18_Mod_range_hashingENS4_20_Default_ranged_hashENS4_20_Prime_rehash_policyENS4_17_Hashtable_traitsILb0ELb0ELb1EEEE4sizeEv, symObjAddr: 0x3E3C, symBinAddr: 0x100004584, symSize: 0x18 }
  - { offset: 0x36D75, size: 0x8, addend: 0x0, symName: __ZNKSt8__detail14_Node_iteratorISt4pairIKiiELb0ELb0EEptEv, symObjAddr: 0x3E0C, symBinAddr: 0x100004554, symSize: 0x30 }
  - { offset: 0x36DC3, size: 0x8, addend: 0x0, symName: __ZNSt10_HashtableIiSt4pairIKiiESaIS2_ENSt8__detail10_Select1stESt8equal_toIiESt4hashIiENS4_18_Mod_range_hashingENS4_20_Default_ranged_hashENS4_20_Prime_rehash_policyENS4_17_Hashtable_traitsILb0ELb0ELb1EEEE21_M_insert_unique_nodeEmmPNS4_10_Hash_nodeIS2_Lb0EEEm, symObjAddr: 0x3CFC, symBinAddr: 0x100004444, symSize: 0x110 }
  - { offset: 0x36E7A, size: 0x8, addend: 0x0, symName: __ZNSt10_HashtableIiSt4pairIKiiESaIS2_ENSt8__detail10_Select1stESt8equal_toIiESt4hashIiENS4_18_Mod_range_hashingENS4_20_Default_ranged_hashENS4_20_Prime_rehash_policyENS4_17_Hashtable_traitsILb0ELb0ELb1EEEE12_Scoped_nodeD1Ev, symObjAddr: 0x3CB8, symBinAddr: 0x100004400, symSize: 0x44 }
  - { offset: 0x36EF3, size: 0x8, addend: 0x0, symName: __ZNSt10_HashtableIiSt4pairIKiiESaIS2_ENSt8__detail10_Select1stESt8equal_toIiESt4hashIiENS4_18_Mod_range_hashingENS4_20_Default_ranged_hashENS4_20_Prime_rehash_policyENS4_17_Hashtable_traitsILb0ELb0ELb1EEEE12_Scoped_nodeC1IJRKSt21piecewise_construct_tSt5tupleIJOiEESL_IJEEEEEPNS4_16_Hashtable_allocISaINS4_10_Hash_nodeIS2_Lb0EEEEEEDpOT_, symObjAddr: 0x3C30, symBinAddr: 0x100004378, symSize: 0x88 }
  - { offset: 0x36F55, size: 0x8, addend: 0x0, symName: __ZSt16forward_as_tupleIJiEESt5tupleIJDpOT_EES3_, symObjAddr: 0x3BF8, symBinAddr: 0x100004340, symSize: 0x38 }
  - { offset: 0x36FA3, size: 0x8, addend: 0x0, symName: __ZNKSt10_HashtableIiSt4pairIKiiESaIS2_ENSt8__detail10_Select1stESt8equal_toIiESt4hashIiENS4_18_Mod_range_hashingENS4_20_Default_ranged_hashENS4_20_Prime_rehash_policyENS4_17_Hashtable_traitsILb0ELb0ELb1EEEE12_M_find_nodeEmRS1_m, symObjAddr: 0x3BA4, symBinAddr: 0x1000042EC, symSize: 0x54 }
  - { offset: 0x37011, size: 0x8, addend: 0x0, symName: __ZNKSt10_HashtableIiSt4pairIKiiESaIS2_ENSt8__detail10_Select1stESt8equal_toIiESt4hashIiENS4_18_Mod_range_hashingENS4_20_Default_ranged_hashENS4_20_Prime_rehash_policyENS4_17_Hashtable_traitsILb0ELb0ELb1EEEE15_M_bucket_indexEm, symObjAddr: 0x3B74, symBinAddr: 0x1000042BC, symSize: 0x30 }
  - { offset: 0x3704C, size: 0x8, addend: 0x0, symName: __ZNKSt8__detail15_Hash_code_baseIiSt4pairIKiiENS_10_Select1stESt4hashIiENS_18_Mod_range_hashingENS_20_Default_ranged_hashELb0EE12_M_hash_codeERS2_, symObjAddr: 0x3B3C, symBinAddr: 0x100004284, symSize: 0x38 }
  - { offset: 0x37087, size: 0x8, addend: 0x0, symName: __ZNSt10_HashtableIiSt4pairIKiiESaIS2_ENSt8__detail10_Select1stESt8equal_toIiESt4hashIiENS4_18_Mod_range_hashingENS4_20_Default_ranged_hashENS4_20_Prime_rehash_policyENS4_17_Hashtable_traitsILb0ELb0ELb1EEEE21_M_deallocate_bucketsEPPNS4_15_Hash_node_baseEm, symObjAddr: 0x3AF0, symBinAddr: 0x100004238, symSize: 0x4C }
  - { offset: 0x370D3, size: 0x8, addend: 0x0, symName: __ZNSt8__detail16_Hashtable_allocISaINS_10_Hash_nodeISt4pairIKiiELb0EEEEE19_M_deallocate_nodesEPS5_, symObjAddr: 0x3AA0, symBinAddr: 0x1000041E8, symSize: 0x50 }
  - { offset: 0x37132, size: 0x8, addend: 0x0, symName: __ZNKSt10_HashtableIiSt4pairIKiiESaIS2_ENSt8__detail10_Select1stESt8equal_toIiESt4hashIiENS4_18_Mod_range_hashingENS4_20_Default_ranged_hashENS4_20_Prime_rehash_policyENS4_17_Hashtable_traitsILb0ELb0ELb1EEEE8_M_beginEv, symObjAddr: 0x3A88, symBinAddr: 0x1000041D0, symSize: 0x18 }
  - { offset: 0x37172, size: 0x8, addend: 0x0, symName: __ZNSt6vectorIS_IxSaIxEESaIS1_EE4backEv, symObjAddr: 0x3A50, symBinAddr: 0x100004198, symSize: 0x38 }
  - { offset: 0x3719C, size: 0x8, addend: 0x0, symName: __ZNSt6vectorIS_IxSaIxEESaIS1_EE17_M_realloc_appendIJS1_EEEvDpOT_, symObjAddr: 0x389C, symBinAddr: 0x100003FE4, symSize: 0x1B4 }
  - { offset: 0x37322, size: 0x8, addend: 0x0, symName: __ZZNSt6vectorIS_IxSaIxEESaIS1_EE17_M_realloc_appendIJS1_EEEvDpOT_EN6_GuardC1EPS1_mRS2_, symObjAddr: 0x37C4, symBinAddr: 0x100003F0C, symSize: 0x44 }
  - { offset: 0x37367, size: 0x8, addend: 0x0, symName: __ZZNSt6vectorIS_IxSaIxEESaIS1_EE17_M_realloc_appendIJS1_EEEvDpOT_EN6_GuardD1Ev, symObjAddr: 0x3808, symBinAddr: 0x100003F50, symSize: 0x94 }
  - { offset: 0x37470, size: 0x8, addend: 0x0, symName: __ZNSt6vectorIS_IxSaIxEESaIS1_EE5beginEv, symObjAddr: 0x37A0, symBinAddr: 0x100003EE8, symSize: 0x24 }
  - { offset: 0x3749D, size: 0x8, addend: 0x0, symName: __ZN9__gnu_cxxmiIPSt6vectorIxSaIxEES1_IS3_SaIS3_EEEENS_17__normal_iteratorIT_T0_E15difference_typeERKSA_SD_, symObjAddr: 0x3754, symBinAddr: 0x100003E9C, symSize: 0x4C }
  - { offset: 0x37516, size: 0x8, addend: 0x0, symName: __ZN9__gnu_cxx17__normal_iteratorIPSt6vectorIxSaIxEES1_IS3_SaIS3_EEEC1ERKS4_, symObjAddr: 0x372C, symBinAddr: 0x100003E74, symSize: 0x28 }
  - { offset: 0x37545, size: 0x8, addend: 0x0, symName: __ZNSt6vectorIS_IxSaIxEESaIS1_EE3endEv, symObjAddr: 0x3704, symBinAddr: 0x100003E4C, symSize: 0x28 }
  - { offset: 0x3756F, size: 0x8, addend: 0x0, symName: __ZNKSt6vectorIS_IxSaIxEESaIS1_EE12_M_check_lenEmPKc, symObjAddr: 0x3634, symBinAddr: 0x100003D7C, symSize: 0xD0 }
  - { offset: 0x375C8, size: 0x8, addend: 0x0, symName: __ZNSt6vectorIS_IxSaIxEESaIS1_EE11_S_max_sizeERKS2_, symObjAddr: 0x35F8, symBinAddr: 0x100003D40, symSize: 0x3C }
  - { offset: 0x37618, size: 0x8, addend: 0x0, symName: __ZNKSt12_Vector_baseISt6vectorIxSaIxEESaIS2_EE19_M_get_Tp_allocatorEv, symObjAddr: 0x35E4, symBinAddr: 0x100003D2C, symSize: 0x14 }
  - { offset: 0x37642, size: 0x8, addend: 0x0, symName: __ZNKSt6vectorIS_IxSaIxEESaIS1_EE8max_sizeEv, symObjAddr: 0x35C4, symBinAddr: 0x100003D0C, symSize: 0x20 }
  - { offset: 0x376B3, size: 0x8, addend: 0x0, symName: __ZSt7forwardISt6vectorIxSaIxEEEOT_RNSt16remove_referenceIS3_E4typeE, symObjAddr: 0x35B0, symBinAddr: 0x100003CF8, symSize: 0x14 }
  - { offset: 0x376E5, size: 0x8, addend: 0x0, symName: __ZSt8_DestroyIPSt6vectorIxSaIxEEEvT_S4_, symObjAddr: 0x356C, symBinAddr: 0x100003CB4, symSize: 0x44 }
  - { offset: 0x37772, size: 0x8, addend: 0x0, symName: __ZNSt6vectorIxSaIxEE11_S_relocateEPxS2_S2_RS0_, symObjAddr: 0x3538, symBinAddr: 0x100003C80, symSize: 0x34 }
  - { offset: 0x377CF, size: 0x8, addend: 0x0, symName: __ZSt12__to_addressIxEPT_S1_, symObjAddr: 0x3524, symBinAddr: 0x100003C6C, symSize: 0x14 }
  - { offset: 0x37805, size: 0x8, addend: 0x0, symName: __ZNSt12_Vector_baseIxSaIxEE11_M_allocateEm, symObjAddr: 0x3460, symBinAddr: 0x100003BA8, symSize: 0xC4 }
  - { offset: 0x378B3, size: 0x8, addend: 0x0, symName: __ZNK9__gnu_cxx17__normal_iteratorIPxSt6vectorIxSaIxEEE4baseEv, symObjAddr: 0x344C, symBinAddr: 0x100003B94, symSize: 0x14 }
  - { offset: 0x378D9, size: 0x8, addend: 0x0, symName: __ZSt12construct_atIxJRKxEEDTgsnwcvPvLi0E_T_pispcl7declvalIT0_EEEEPS3_DpOS4_, symObjAddr: 0x3404, symBinAddr: 0x100003B4C, symSize: 0x48 }
  - { offset: 0x3792C, size: 0x8, addend: 0x0, symName: __ZSt7forwardIRKxEOT_RNSt16remove_referenceIS2_E4typeE, symObjAddr: 0x33F0, symBinAddr: 0x100003B38, symSize: 0x14 }
  - { offset: 0x37990, size: 0x8, addend: 0x0, symName: __ZSt8_DestroyIPxEvT_S1_, symObjAddr: 0x33AC, symBinAddr: 0x100003AF4, symSize: 0x44 }
  - { offset: 0x379EB, size: 0x8, addend: 0x0, symName: __ZSt18uninitialized_copyIN9__gnu_cxx17__normal_iteratorIPKxSt6vectorIxSaIxEEEEPxET0_T_SA_S9_, symObjAddr: 0x3370, symBinAddr: 0x100003AB8, symSize: 0x3C }
  - { offset: 0x37A66, size: 0x8, addend: 0x0, symName: __ZSt16__do_uninit_copyIN9__gnu_cxx17__normal_iteratorIPKxSt6vectorIxSaIxEEEEPxET0_T_SA_S9_, symObjAddr: 0x32E8, symBinAddr: 0x100003A30, symSize: 0x88 }
  - { offset: 0x37AD8, size: 0x8, addend: 0x0, symName: __ZN9__gnu_cxxeqIPKxSt6vectorIxSaIxEEEEbRKNS_17__normal_iteratorIT_T0_EESB_QrqXeqcldtfL0p_4baseEcldtfL0p0_4baseERSt14convertible_toIbEE, symObjAddr: 0x32A4, symBinAddr: 0x1000039EC, symSize: 0x44 }
  - { offset: 0x37B29, size: 0x8, addend: 0x0, symName: __ZNK9__gnu_cxx17__normal_iteratorIPKxSt6vectorIxSaIxEEE4baseEv, symObjAddr: 0x3290, symBinAddr: 0x1000039D8, symSize: 0x14 }
  - { offset: 0x37B7B, size: 0x8, addend: 0x0, symName: __ZN9__gnu_cxx17__normal_iteratorIPKxSt6vectorIxSaIxEEEC1ERKS2_, symObjAddr: 0x3268, symBinAddr: 0x1000039B0, symSize: 0x28 }
  - { offset: 0x37BAA, size: 0x8, addend: 0x0, symName: __ZNSt12_Vector_baseIxSaIxEE17_M_create_storageEm, symObjAddr: 0x3208, symBinAddr: 0x100003950, symSize: 0x60 }
  - { offset: 0x37BFF, size: 0x8, addend: 0x0, symName: __ZNSt7__cxx1112basic_stringIcSt11char_traitsIcESaIcEE9_M_assignERKS4_, symObjAddr: 0x3114, symBinAddr: 0x10000385C, symSize: 0xF4 }
  - { offset: 0x37CA0, size: 0x8, addend: 0x0, symName: __ZSt11__addressofIKNSt7__cxx1112basic_stringIcSt11char_traitsIcESaIcEEEEPT_RS7_, symObjAddr: 0x3100, symBinAddr: 0x100003848, symSize: 0x14 }
  - { offset: 0x37D35, size: 0x8, addend: 0x0, symName: __ZNSt7__cxx1112basic_stringIcSt11char_traitsIcESaIcEE6appendEPKcm, symObjAddr: 0x30BC, symBinAddr: 0x100003804, symSize: 0x44 }
  - { offset: 0x37D7D, size: 0x8, addend: 0x0, symName: __ZNSt19__ptr_traits_ptr_toIPKcS0_Lb0EE10pointer_toERS0_, symObjAddr: 0x30A0, symBinAddr: 0x1000037E8, symSize: 0x1C }
  - { offset: 0x37DAA, size: 0x8, addend: 0x0, symName: __ZNSt10_HashtableIiSt4pairIKiiESaIS2_ENSt8__detail10_Select1stESt8equal_toIiESt4hashIiENS4_18_Mod_range_hashingENS4_20_Default_ranged_hashENS4_20_Prime_rehash_policyENS4_17_Hashtable_traitsILb0ELb0ELb1EEEE5eraseERS1_, symObjAddr: 0x3078, symBinAddr: 0x1000037C0, symSize: 0x28 }
  - { offset: 0x37DE5, size: 0x8, addend: 0x0, symName: __ZNSt8__detail9_Map_baseIiSt4pairIKiiESaIS3_ENS_10_Select1stESt8equal_toIiESt4hashIiENS_18_Mod_range_hashingENS_20_Default_ranged_hashENS_20_Prime_rehash_policyENS_17_Hashtable_traitsILb0ELb0ELb1EEELb1EEixERS2_, symObjAddr: 0x2F58, symBinAddr: 0x1000036A0, symSize: 0x120 }
  - { offset: 0x37EEF, size: 0x8, addend: 0x0, symName: __ZSt12__str_concatINSt7__cxx1112basic_stringIcSt11char_traitsIcESaIcEEEET_PKNS6_10value_typeENS6_9size_typeES9_SA_RKNS6_14allocator_typeE, symObjAddr: 0x2E80, symBinAddr: 0x1000035C8, symSize: 0xD8 }
  - { offset: 0x38041, size: 0x8, addend: 0x0, symName: __ZNKSt7__cxx1112basic_stringIcSt11char_traitsIcESaIcEE13get_allocatorEv, symObjAddr: 0x2E30, symBinAddr: 0x100003578, symSize: 0x50 }
  - { offset: 0x380C7, size: 0x8, addend: 0x0, symName: __ZNSt8__detaileqERKNS_19_Node_iterator_baseISt4pairIKiiELb0EEES6_, symObjAddr: 0x2E00, symBinAddr: 0x100003548, symSize: 0x30 }
  - { offset: 0x38106, size: 0x8, addend: 0x0, symName: __ZNKSt10_HashtableIiSt4pairIKiiESaIS2_ENSt8__detail10_Select1stESt8equal_toIiESt4hashIiENS4_18_Mod_range_hashingENS4_20_Default_ranged_hashENS4_20_Prime_rehash_policyENS4_17_Hashtable_traitsILb0ELb0ELb1EEEE3endEv, symObjAddr: 0x2DDC, symBinAddr: 0x100003524, symSize: 0x24 }
  - { offset: 0x38130, size: 0x8, addend: 0x0, symName: __ZNKSt10_HashtableIiSt4pairIKiiESaIS2_ENSt8__detail10_Select1stESt8equal_toIiESt4hashIiENS4_18_Mod_range_hashingENS4_20_Default_ranged_hashENS4_20_Prime_rehash_policyENS4_17_Hashtable_traitsILb0ELb0ELb1EEEE4findERS1_, symObjAddr: 0x2CE4, symBinAddr: 0x10000342C, symSize: 0xF8 }
  - { offset: 0x381AD, size: 0x8, addend: 0x0, symName: __ZNSt7__cxx1112basic_stringIcSt11char_traitsIcESaIcEE11_S_allocateERS3_m, symObjAddr: 0x2C48, symBinAddr: 0x100003390, symSize: 0x9C }
  - { offset: 0x3826C, size: 0x8, addend: 0x0, symName: __ZNKSt7__cxx1112basic_stringIcSt11char_traitsIcESaIcEE8max_sizeEv, symObjAddr: 0x2C1C, symBinAddr: 0x100003364, symSize: 0x2C }
  - { offset: 0x382D0, size: 0x8, addend: 0x0, symName: __ZNSt8__detail9_Map_baseIiSt4pairIKiiESaIS3_ENS_10_Select1stESt8equal_toIiESt4hashIiENS_18_Mod_range_hashingENS_20_Default_ranged_hashENS_20_Prime_rehash_policyENS_17_Hashtable_traitsILb0ELb0ELb1EEELb1EEixEOi, symObjAddr: 0x2AEC, symBinAddr: 0x100003234, symSize: 0x130 }
  - { offset: 0x383D3, size: 0x8, addend: 0x0, symName: __ZSt4moveIRiEONSt16remove_referenceIT_E4typeEOS2_, symObjAddr: 0x2AD8, symBinAddr: 0x100003220, symSize: 0x14 }
  - { offset: 0x38431, size: 0x8, addend: 0x0, symName: __ZN9__gnu_cxx17__normal_iteratorIPcNSt7__cxx1112basic_stringIcSt11char_traitsIcESaIcEEEEC1ERKS1_, symObjAddr: 0x2AB0, symBinAddr: 0x1000031F8, symSize: 0x28 }
  - { offset: 0x38460, size: 0x8, addend: 0x0, symName: __ZNSt10_HashtableIiSt4pairIKiiESaIS2_ENSt8__detail10_Select1stESt8equal_toIiESt4hashIiENS4_18_Mod_range_hashingENS4_20_Default_ranged_hashENS4_20_Prime_rehash_policyENS4_17_Hashtable_traitsILb0ELb0ELb1EEEE21_M_deallocate_bucketsEv, symObjAddr: 0x2A7C, symBinAddr: 0x1000031C4, symSize: 0x34 }
  - { offset: 0x3848A, size: 0x8, addend: 0x0, symName: __ZNSt10_HashtableIiSt4pairIKiiESaIS2_ENSt8__detail10_Select1stESt8equal_toIiESt4hashIiENS4_18_Mod_range_hashingENS4_20_Default_ranged_hashENS4_20_Prime_rehash_policyENS4_17_Hashtable_traitsILb0ELb0ELb1EEEE5clearEv, symObjAddr: 0x2A1C, symBinAddr: 0x100003164, symSize: 0x60 }
  - { offset: 0x384CA, size: 0x8, addend: 0x0, symName: __ZNSt6vectorIS_IxSaIxEESaIS1_EE12emplace_backIJS1_EEERS1_DpOT_, symObjAddr: 0x2978, symBinAddr: 0x1000030C0, symSize: 0xA4 }
  - { offset: 0x38546, size: 0x8, addend: 0x0, symName: __ZSt4moveIRSt6vectorIxSaIxEEEONSt16remove_referenceIT_E4typeEOS5_, symObjAddr: 0x2964, symBinAddr: 0x1000030AC, symSize: 0x14 }
  - { offset: 0x385B7, size: 0x8, addend: 0x0, symName: __ZNSt12_Vector_baseISt6vectorIxSaIxEESaIS2_EE19_M_get_Tp_allocatorEv, symObjAddr: 0x2950, symBinAddr: 0x100003098, symSize: 0x14 }
  - { offset: 0x385E1, size: 0x8, addend: 0x0, symName: __ZNSt12_Vector_baseISt6vectorIxSaIxEESaIS2_EE13_M_deallocateEPS2_m, symObjAddr: 0x28C4, symBinAddr: 0x10000300C, symSize: 0x8C }
  - { offset: 0x386B3, size: 0x8, addend: 0x0, symName: __ZNSt6vectorIxSaIxEE17_M_realloc_appendIJRKxEEEvDpOT_, symObjAddr: 0x273C, symBinAddr: 0x100002E84, symSize: 0x188 }
  - { offset: 0x38839, size: 0x8, addend: 0x0, symName: __ZZNSt6vectorIxSaIxEE17_M_realloc_appendIJRKxEEEvDpOT_EN6_GuardC1EPxmRS0_, symObjAddr: 0x2664, symBinAddr: 0x100002DAC, symSize: 0x44 }
  - { offset: 0x3887E, size: 0x8, addend: 0x0, symName: __ZZNSt6vectorIxSaIxEE17_M_realloc_appendIJRKxEEEvDpOT_EN6_GuardD1Ev, symObjAddr: 0x26A8, symBinAddr: 0x100002DF0, symSize: 0x94 }
  - { offset: 0x38987, size: 0x8, addend: 0x0, symName: __ZNSt6vectorIxSaIxEE5beginEv, symObjAddr: 0x2640, symBinAddr: 0x100002D88, symSize: 0x24 }
  - { offset: 0x389B4, size: 0x8, addend: 0x0, symName: __ZN9__gnu_cxxmiIPxSt6vectorIxSaIxEEEENS_17__normal_iteratorIT_T0_E15difference_typeERKS8_SB_, symObjAddr: 0x2600, symBinAddr: 0x100002D48, symSize: 0x40 }
  - { offset: 0x38A2D, size: 0x8, addend: 0x0, symName: __ZN9__gnu_cxx17__normal_iteratorIPxSt6vectorIxSaIxEEEC1ERKS1_, symObjAddr: 0x25D8, symBinAddr: 0x100002D20, symSize: 0x28 }
  - { offset: 0x38A5C, size: 0x8, addend: 0x0, symName: __ZNSt6vectorIxSaIxEE3endEv, symObjAddr: 0x25B0, symBinAddr: 0x100002CF8, symSize: 0x28 }
  - { offset: 0x38A86, size: 0x8, addend: 0x0, symName: __ZNKSt6vectorIxSaIxEE12_M_check_lenEmPKc, symObjAddr: 0x24E0, symBinAddr: 0x100002C28, symSize: 0xD0 }
  - { offset: 0x38ADF, size: 0x8, addend: 0x0, symName: __ZNSt6vectorIxSaIxEE11_S_max_sizeERKS0_, symObjAddr: 0x24AC, symBinAddr: 0x100002BF4, symSize: 0x34 }
  - { offset: 0x38B2F, size: 0x8, addend: 0x0, symName: __ZNKSt6vectorIxSaIxEE8max_sizeEv, symObjAddr: 0x248C, symBinAddr: 0x100002BD4, symSize: 0x20 }
  - { offset: 0x38B9D, size: 0x8, addend: 0x0, symName: __ZNSt12_Vector_baseIxSaIxEE13_M_deallocateEPxm, symObjAddr: 0x2400, symBinAddr: 0x100002B48, symSize: 0x8C }
  - { offset: 0x38CA6, size: 0x8, addend: 0x0, symName: __ZSt22__uninitialized_copy_aIN9__gnu_cxx17__normal_iteratorIPKxSt6vectorIxSaIxEEEEPxxET0_T_SA_S9_RSaIT1_E, symObjAddr: 0x23A8, symBinAddr: 0x100002AF0, symSize: 0x58 }
  - { offset: 0x38D1A, size: 0x8, addend: 0x0, symName: __ZNSt12_Vector_baseIxSaIxEE19_M_get_Tp_allocatorEv, symObjAddr: 0x2394, symBinAddr: 0x100002ADC, symSize: 0x14 }
  - { offset: 0x38D44, size: 0x8, addend: 0x0, symName: __ZNKSt6vectorIxSaIxEE3endEv, symObjAddr: 0x236C, symBinAddr: 0x100002AB4, symSize: 0x28 }
  - { offset: 0x38D6E, size: 0x8, addend: 0x0, symName: __ZNKSt6vectorIxSaIxEE5beginEv, symObjAddr: 0x2348, symBinAddr: 0x100002A90, symSize: 0x24 }
  - { offset: 0x38DCE, size: 0x8, addend: 0x0, symName: __ZNSt12_Vector_baseIxSaIxEEC2EmRKS0_, symObjAddr: 0x22F4, symBinAddr: 0x100002A3C, symSize: 0x54 }
  - { offset: 0x38E2D, size: 0x8, addend: 0x0, symName: __ZNSt12_Vector_baseIxSaIxEE12_Vector_implC1ERKS0_, symObjAddr: 0x22A8, symBinAddr: 0x1000029F0, symSize: 0x4C }
  - { offset: 0x38EC9, size: 0x8, addend: 0x0, symName: __ZNKSt12_Vector_baseIxSaIxEE19_M_get_Tp_allocatorEv, symObjAddr: 0x2294, symBinAddr: 0x1000029DC, symSize: 0x14 }
  - { offset: 0x38EF3, size: 0x8, addend: 0x0, symName: __ZNSt7__cxx1112basic_stringIcSt11char_traitsIcESaIcEE6assignERKS4_, symObjAddr: 0x2078, symBinAddr: 0x1000027C0, symSize: 0x21C }
  - { offset: 0x39131, size: 0x8, addend: 0x0, symName: __ZNSt7__cxx1112basic_stringIcSt11char_traitsIcESaIcEE10_M_destroyEm, symObjAddr: 0x1FE0, symBinAddr: 0x100002728, symSize: 0x98 }
  - { offset: 0x39207, size: 0x8, addend: 0x0, symName: __ZNKSt7__cxx1112basic_stringIcSt11char_traitsIcESaIcEE13_M_local_dataEv, symObjAddr: 0x1FC0, symBinAddr: 0x100002708, symSize: 0x20 }
  - { offset: 0x39235, size: 0x8, addend: 0x0, symName: __ZNSt7__cxx1112basic_stringIcSt11char_traitsIcESaIcEE7reserveEm, symObjAddr: 0x1F18, symBinAddr: 0x100002660, symSize: 0xA8 }
  - { offset: 0x39292, size: 0x8, addend: 0x0, symName: __ZNKSt7__cxx1112basic_stringIcSt11char_traitsIcESaIcEE8capacityEv, symObjAddr: 0x1EE0, symBinAddr: 0x100002628, symSize: 0x38 }
  - { offset: 0x392B8, size: 0x8, addend: 0x0, symName: __ZN9__gnu_cxx11char_traitsIcE2eqERKcS3_, symObjAddr: 0x1EB0, symBinAddr: 0x1000025F8, symSize: 0x30 }
  - { offset: 0x392F8, size: 0x8, addend: 0x0, symName: __ZSt7forwardIRKcEOT_RNSt16remove_referenceIS2_E4typeE, symObjAddr: 0x1E9C, symBinAddr: 0x1000025E4, symSize: 0x14 }
  - { offset: 0x3932E, size: 0x8, addend: 0x0, symName: __ZNSt13unordered_mapIiiSt4hashIiESt8equal_toIiESaISt4pairIKiiEEE5eraseERS5_, symObjAddr: 0x1E78, symBinAddr: 0x1000025C0, symSize: 0x24 }
  - { offset: 0x39369, size: 0x8, addend: 0x0, symName: __ZNSt13unordered_mapIiiSt4hashIiESt8equal_toIiESaISt4pairIKiiEEEixERS5_, symObjAddr: 0x1E54, symBinAddr: 0x10000259C, symSize: 0x24 }
  - { offset: 0x393A0, size: 0x8, addend: 0x0, symName: __ZStplIcSt11char_traitsIcESaIcEENSt7__cxx1112basic_stringIT_T0_T1_EERKS8_S5_, symObjAddr: 0x1DCC, symBinAddr: 0x100002514, symSize: 0x88 }
  - { offset: 0x3941B, size: 0x8, addend: 0x0, symName: __ZNKSt13unordered_mapIiiSt4hashIiESt8equal_toIiESaISt4pairIKiiEEE8containsERS5_, symObjAddr: 0x1D84, symBinAddr: 0x1000024CC, symSize: 0x48 }
  - { offset: 0x39456, size: 0x8, addend: 0x0, symName: __ZNSt7__cxx1112basic_stringIcSt11char_traitsIcESaIcEE10_M_disposeEv, symObjAddr: 0x1D3C, symBinAddr: 0x100002484, symSize: 0x48 }
  - { offset: 0x39480, size: 0x8, addend: 0x0, symName: __ZNSt7__cxx1112basic_stringIcSt11char_traitsIcESaIcEE11_M_capacityEm, symObjAddr: 0x1D18, symBinAddr: 0x100002460, symSize: 0x24 }
  - { offset: 0x394BA, size: 0x8, addend: 0x0, symName: __ZNSt7__cxx1112basic_stringIcSt11char_traitsIcESaIcEE7_M_dataEPc, symObjAddr: 0x1CF4, symBinAddr: 0x10000243C, symSize: 0x24 }
  - { offset: 0x394F7, size: 0x8, addend: 0x0, symName: __ZNSt7__cxx1112basic_stringIcSt11char_traitsIcESaIcEE9_M_createERmm, symObjAddr: 0x1C00, symBinAddr: 0x100002348, symSize: 0xF4 }
  - { offset: 0x39541, size: 0x8, addend: 0x0, symName: __ZNSt13unordered_mapIiiSt4hashIiESt8equal_toIiESaISt4pairIKiiEEEixEOi, symObjAddr: 0x1BC8, symBinAddr: 0x100002310, symSize: 0x38 }
  - { offset: 0x3957C, size: 0x8, addend: 0x0, symName: __ZN9__gnu_cxx17__normal_iteratorIPcNSt7__cxx1112basic_stringIcSt11char_traitsIcESaIcEEEEppEv, symObjAddr: 0x1BA0, symBinAddr: 0x1000022E8, symSize: 0x28 }
  - { offset: 0x395A6, size: 0x8, addend: 0x0, symName: __ZNSt7__cxx1112basic_stringIcSt11char_traitsIcESaIcEE3endEv, symObjAddr: 0x1B58, symBinAddr: 0x1000022A0, symSize: 0x48 }
  - { offset: 0x395D0, size: 0x8, addend: 0x0, symName: __ZNSt7__cxx1112basic_stringIcSt11char_traitsIcESaIcEE5beginEv, symObjAddr: 0x1B28, symBinAddr: 0x100002270, symSize: 0x30 }
  - { offset: 0x3961E, size: 0x8, addend: 0x0, symName: __ZNSt10_HashtableIiSt4pairIKiiESaIS2_ENSt8__detail10_Select1stESt8equal_toIiESt4hashIiENS4_18_Mod_range_hashingENS4_20_Default_ranged_hashENS4_20_Prime_rehash_policyENS4_17_Hashtable_traitsILb0ELb0ELb1EEEED1Ev, symObjAddr: 0x1AF8, symBinAddr: 0x100002240, symSize: 0x30 }
  - { offset: 0x3967E, size: 0x8, addend: 0x0, symName: __ZNSt8__detail21_Hashtable_ebo_helperILi0ESaINS_10_Hash_nodeISt4pairIKiiELb0EEEELb1EEC2Ev, symObjAddr: 0x1ACC, symBinAddr: 0x100002214, symSize: 0x2C }
  - { offset: 0x39705, size: 0x8, addend: 0x0, symName: __ZNSt8__detail21_Hashtable_ebo_helperILi0ESt8equal_toIiELb1EEC2Ev, symObjAddr: 0x1AB8, symBinAddr: 0x100002200, symSize: 0x14 }
  - { offset: 0x39745, size: 0x8, addend: 0x0, symName: __ZNSt8__detail21_Hashtable_ebo_helperILi1ESt4hashIiELb1EEC2Ev, symObjAddr: 0x1AA4, symBinAddr: 0x1000021EC, symSize: 0x14 }
  - { offset: 0x3976B, size: 0x8, addend: 0x0, symName: __ZNSt6vectorIS_IxSaIxEESaIS1_EE9push_backEOS1_, symObjAddr: 0x1A74, symBinAddr: 0x1000021BC, symSize: 0x30 }
  - { offset: 0x397CA, size: 0x8, addend: 0x0, symName: __ZNSt6vectorIS_IxSaIxEESaIS1_EED1Ev, symObjAddr: 0x1A18, symBinAddr: 0x100002160, symSize: 0x5C }
  - { offset: 0x3984A, size: 0x8, addend: 0x0, symName: __ZNSt12_Vector_baseISt6vectorIxSaIxEESaIS2_EED2Ev, symObjAddr: 0x19BC, symBinAddr: 0x100002104, symSize: 0x5C }
  - { offset: 0x39890, size: 0x8, addend: 0x0, symName: __ZNSt6vectorIxSaIxEE9push_backERKx, symObjAddr: 0x1930, symBinAddr: 0x100002078, symSize: 0x8C }
  - { offset: 0x39925, size: 0x8, addend: 0x0, symName: __ZNSt12_Vector_baseIxSaIxEED2Ev, symObjAddr: 0x18E0, symBinAddr: 0x100002028, symSize: 0x50 }
  - { offset: 0x3998F, size: 0x8, addend: 0x0, symName: __ZNSt6vectorIxSaIxEED1Ev, symObjAddr: 0x1884, symBinAddr: 0x100001FCC, symSize: 0x5C }
  - { offset: 0x39A13, size: 0x8, addend: 0x0, symName: __ZNSt6vectorIxSaIxEEC1ERKS1_, symObjAddr: 0x1790, symBinAddr: 0x100001ED8, symSize: 0xF4 }
  - { offset: 0x39B05, size: 0x8, addend: 0x0, symName: __ZNSt6vectorIS_IxSaIxEESaIS1_EEixEm, symObjAddr: 0x175C, symBinAddr: 0x100001EA4, symSize: 0x34 }
  - { offset: 0x39B40, size: 0x8, addend: 0x0, symName: __ZNKSt6vectorIS_IxSaIxEESaIS1_EE4sizeEv, symObjAddr: 0x1728, symBinAddr: 0x100001E70, symSize: 0x34 }
  - { offset: 0x39B6A, size: 0x8, addend: 0x0, symName: __ZNSt6vectorIxSaIxEEixEm, symObjAddr: 0x1700, symBinAddr: 0x100001E48, symSize: 0x28 }
  - { offset: 0x39BA5, size: 0x8, addend: 0x0, symName: __ZNKSt6vectorIxSaIxEE4sizeEv, symObjAddr: 0x16D8, symBinAddr: 0x100001E20, symSize: 0x28 }
  - { offset: 0x39BF7, size: 0x8, addend: 0x0, symName: __ZNSt7__cxx1112basic_stringIcSt11char_traitsIcESaIcEEC1ERKS3_, symObjAddr: 0x1640, symBinAddr: 0x100001D88, symSize: 0x98 }
  - { offset: 0x39C6A, size: 0x8, addend: 0x0, symName: __ZNSt7__cxx1112basic_stringIcSt11char_traitsIcESaIcEEaSEOS4_, symObjAddr: 0x139C, symBinAddr: 0x100001AE4, symSize: 0x2A4 }
  - { offset: 0x39D98, size: 0x8, addend: 0x0, symName: __ZSt11__addressofINSt7__cxx1112basic_stringIcSt11char_traitsIcESaIcEEEEPT_RS6_, symObjAddr: 0x1388, symBinAddr: 0x100001AD0, symSize: 0x14 }
  - { offset: 0x39E0B, size: 0x8, addend: 0x0, symName: __ZNKSt7__cxx1112basic_stringIcSt11char_traitsIcESaIcEE16_M_get_allocatorEv, symObjAddr: 0x1374, symBinAddr: 0x100001ABC, symSize: 0x14 }
  - { offset: 0x39E35, size: 0x8, addend: 0x0, symName: __ZNSt7__cxx1112basic_stringIcSt11char_traitsIcESaIcEE5clearEv, symObjAddr: 0x1350, symBinAddr: 0x100001A98, symSize: 0x24 }
  - { offset: 0x39E62, size: 0x8, addend: 0x0, symName: __ZSt7forwardIiEOT_RNSt16remove_referenceIS0_E4typeE, symObjAddr: 0x133C, symBinAddr: 0x100001A84, symSize: 0x14 }
  - { offset: 0x39E94, size: 0x8, addend: 0x0, symName: __ZSt3maxImERKT_S2_S2_, symObjAddr: 0x1304, symBinAddr: 0x100001A4C, symSize: 0x38 }
  - { offset: 0x39EDC, size: 0x8, addend: 0x0, symName: __ZNKSt7__cxx1112basic_stringIcSt11char_traitsIcESaIcEE6lengthEv, symObjAddr: 0x12EC, symBinAddr: 0x100001A34, symSize: 0x18 }
  - { offset: 0x39F06, size: 0x8, addend: 0x0, symName: __ZNKSt7__cxx1112basic_stringIcSt11char_traitsIcESaIcEE11_M_is_localEv, symObjAddr: 0x1284, symBinAddr: 0x1000019CC, symSize: 0x68 }
  - { offset: 0x39F30, size: 0x8, addend: 0x0, symName: __ZNSt7__cxx1112basic_stringIcSt11char_traitsIcESaIcEE16_M_get_allocatorEv, symObjAddr: 0x1270, symBinAddr: 0x1000019B8, symSize: 0x14 }
  - { offset: 0x39F7E, size: 0x8, addend: 0x0, symName: __ZNSt7__cxx1112basic_stringIcSt11char_traitsIcESaIcEED1Ev, symObjAddr: 0x1248, symBinAddr: 0x100001990, symSize: 0x28 }
  - { offset: 0x39FA4, size: 0x8, addend: 0x0, symName: __ZNKSt7__cxx1112basic_stringIcSt11char_traitsIcESaIcEE5c_strEv, symObjAddr: 0x122C, symBinAddr: 0x100001974, symSize: 0x1C }
  - { offset: 0x39FCA, size: 0x8, addend: 0x0, symName: __ZN9__gnu_cxx11char_traitsIcE4copyEPcPKcm, symObjAddr: 0x1178, symBinAddr: 0x1000018C0, symSize: 0xB4 }
  - { offset: 0x3A051, size: 0x8, addend: 0x0, symName: __ZN9__gnu_cxx11char_traitsIcE6lengthEPKc, symObjAddr: 0x1120, symBinAddr: 0x100001868, symSize: 0x58 }
  - { offset: 0x3A08A, size: 0x8, addend: 0x0, symName: __ZSt12construct_atIcJRKcEEDTgsnwcvPvLi0E_T_pispcl7declvalIT0_EEEEPS3_DpOS4_, symObjAddr: 0x10D8, symBinAddr: 0x100001820, symSize: 0x48 }
  - { offset: 0x3A0DD, size: 0x8, addend: 0x0, symName: _main, symObjAddr: 0xFE8, symBinAddr: 0x100001730, symSize: 0xF0 }
  - { offset: 0x3A11D, size: 0x8, addend: 0x0, symName: __Z12runtestcasesv, symObjAddr: 0xD8C, symBinAddr: 0x1000014D4, symSize: 0x25C }
  - { offset: 0x3A2AA, size: 0x8, addend: 0x0, symName: __ZNSt7__cxx1112basic_stringIcSt11char_traitsIcESaIcEE9_M_lengthEm, symObjAddr: 0xD68, symBinAddr: 0x1000014B0, symSize: 0x24 }
  - { offset: 0x3A2E4, size: 0x8, addend: 0x0, symName: __ZNSt7__cxx1112basic_stringIcSt11char_traitsIcESaIcEE13_M_set_lengthEm, symObjAddr: 0xD20, symBinAddr: 0x100001468, symSize: 0x48 }
  - { offset: 0x3A31B, size: 0x8, addend: 0x0, symName: __ZNSt7__cxx1112basic_stringIcSt11char_traitsIcESaIcEE7_S_copyEPcPKcm, symObjAddr: 0xCD4, symBinAddr: 0x10000141C, symSize: 0x4C }
  - { offset: 0x3A367, size: 0x8, addend: 0x0, symName: __ZNSt7__cxx1112basic_stringIcSt11char_traitsIcESaIcEE13_S_copy_charsEPcPKcS7_, symObjAddr: 0xC98, symBinAddr: 0x1000013E0, symSize: 0x3C }
  - { offset: 0x3A3B7, size: 0x8, addend: 0x0, symName: __ZNKSt7__cxx1112basic_stringIcSt11char_traitsIcESaIcEE7_M_dataEv, symObjAddr: 0xC80, symBinAddr: 0x1000013C8, symSize: 0x18 }
  - { offset: 0x3A452, size: 0x8, addend: 0x0, symName: __ZNSt7__cxx1112basic_stringIcSt11char_traitsIcESaIcEE12_M_constructIPKcEEvT_S8_St20forward_iterator_tag, symObjAddr: 0xB40, symBinAddr: 0x100001288, symSize: 0x140 }
  - { offset: 0x3A55C, size: 0x8, addend: 0x0, symName: __ZZNSt7__cxx1112basic_stringIcSt11char_traitsIcESaIcEE12_M_constructIPKcEEvT_S8_St20forward_iterator_tagEN6_GuardC1EPS4_, symObjAddr: 0xAE8, symBinAddr: 0x100001230, symSize: 0x24 }
  - { offset: 0x3A58F, size: 0x8, addend: 0x0, symName: __ZZNSt7__cxx1112basic_stringIcSt11char_traitsIcESaIcEE12_M_constructIPKcEEvT_S8_St20forward_iterator_tagEN6_GuardD1Ev, symObjAddr: 0xB0C, symBinAddr: 0x100001254, symSize: 0x34 }
  - { offset: 0x3A6D3, size: 0x8, addend: 0x0, symName: __ZNSt7__cxx1112basic_stringIcSt11char_traitsIcESaIcEEC1IS3_EEPKcRKS3_, symObjAddr: 0xA4C, symBinAddr: 0x100001194, symSize: 0x9C }
  - { offset: 0x3A76C, size: 0x8, addend: 0x0, symName: __ZNSt7__cxx1112basic_stringIcSt11char_traitsIcESaIcEE12_Alloc_hiderC1EPcRKS3_, symObjAddr: 0x9FC, symBinAddr: 0x100001144, symSize: 0x50 }
  - { offset: 0x3A7FC, size: 0x8, addend: 0x0, symName: __ZNK9__gnu_cxx17__normal_iteratorIPcNSt7__cxx1112basic_stringIcSt11char_traitsIcESaIcEEEEdeEv, symObjAddr: 0x9E4, symBinAddr: 0x10000112C, symSize: 0x18 }
  - { offset: 0x3A822, size: 0x8, addend: 0x0, symName: __ZN9__gnu_cxxeqIPcNSt7__cxx1112basic_stringIcSt11char_traitsIcESaIcEEEEEbRKNS_17__normal_iteratorIT_T0_EESD_QrqXeqcldtfL0p_4baseEcldtfL0p0_4baseERSt14convertible_toIbEE, symObjAddr: 0x9A0, symBinAddr: 0x1000010E8, symSize: 0x44 }
  - { offset: 0x3A873, size: 0x8, addend: 0x0, symName: __ZNK9__gnu_cxx17__normal_iteratorIPcNSt7__cxx1112basic_stringIcSt11char_traitsIcESaIcEEEE4baseEv, symObjAddr: 0x98C, symBinAddr: 0x1000010D4, symSize: 0x14 }
  - { offset: 0x3A8C4, size: 0x8, addend: 0x0, symName: __ZNSt13unordered_mapIiiSt4hashIiESt8equal_toIiESaISt4pairIKiiEEED1Ev, symObjAddr: 0x96C, symBinAddr: 0x1000010B4, symSize: 0x20 }
  - { offset: 0x3A904, size: 0x8, addend: 0x0, symName: __ZNSt13unordered_mapIiiSt4hashIiESt8equal_toIiESaISt4pairIKiiEEEC1Ev, symObjAddr: 0x94C, symBinAddr: 0x100001094, symSize: 0x20 }
  - { offset: 0x3A944, size: 0x8, addend: 0x0, symName: __ZNSt10_HashtableIiSt4pairIKiiESaIS2_ENSt8__detail10_Select1stESt8equal_toIiESt4hashIiENS4_18_Mod_range_hashingENS4_20_Default_ranged_hashENS4_20_Prime_rehash_policyENS4_17_Hashtable_traitsILb0ELb0ELb1EEEEC1Ev, symObjAddr: 0x8DC, symBinAddr: 0x100001024, symSize: 0x70 }
  - { offset: 0x3A992, size: 0x8, addend: 0x0, symName: __ZNSt8__detail16_Hashtable_allocISaINS_10_Hash_nodeISt4pairIKiiELb0EEEEED2Ev, symObjAddr: 0x8BC, symBinAddr: 0x100001004, symSize: 0x20 }
  - { offset: 0x3A9D2, size: 0x8, addend: 0x0, symName: __ZNSt8__detail16_Hashtable_allocISaINS_10_Hash_nodeISt4pairIKiiELb0EEEEEC2Ev, symObjAddr: 0x89C, symBinAddr: 0x100000FE4, symSize: 0x20 }
  - { offset: 0x3AA20, size: 0x8, addend: 0x0, symName: __ZNSt8__detail21_Hashtable_ebo_helperILi0ESaINS_10_Hash_nodeISt4pairIKiiELb0EEEELb1EED2Ev, symObjAddr: 0x87C, symBinAddr: 0x100000FC4, symSize: 0x20 }
  - { offset: 0x3AA84, size: 0x8, addend: 0x0, symName: __ZNSt8__detail15_Hashtable_baseIiSt4pairIKiiENS_10_Select1stESt8equal_toIiESt4hashIiENS_18_Mod_range_hashingENS_20_Default_ranged_hashENS_17_Hashtable_traitsILb0ELb0ELb1EEEEC2Ev, symObjAddr: 0x854, symBinAddr: 0x100000F9C, symSize: 0x28 }
  - { offset: 0x3AAC4, size: 0x8, addend: 0x0, symName: __ZNSt8__detail15_Hash_code_baseIiSt4pairIKiiENS_10_Select1stESt4hashIiENS_18_Mod_range_hashingENS_20_Default_ranged_hashELb0EEC2Ev, symObjAddr: 0x834, symBinAddr: 0x100000F7C, symSize: 0x20 }
  - { offset: 0x3AAF1, size: 0x8, addend: 0x0, symName: __Z6getvecii, symObjAddr: 0x790, symBinAddr: 0x100000ED8, symSize: 0xA4 }
  - { offset: 0x3AB7C, size: 0x8, addend: 0x0, symName: __ZNSt12_Vector_baseISt6vectorIxSaIxEESaIS2_EE12_Vector_implD1Ev, symObjAddr: 0x770, symBinAddr: 0x100000EB8, symSize: 0x20 }
  - { offset: 0x3ABCC, size: 0x8, addend: 0x0, symName: __Z6getveci, symObjAddr: 0x6E0, symBinAddr: 0x100000E28, symSize: 0x90 }
  - { offset: 0x3AC4B, size: 0x8, addend: 0x0, symName: __ZNSt6vectorIxSaIxEEC1EOS1_, symObjAddr: 0x6B8, symBinAddr: 0x100000E00, symSize: 0x28 }
  - { offset: 0x3AC99, size: 0x8, addend: 0x0, symName: __ZNSt12_Vector_baseIxSaIxEEC2EOS1_, symObjAddr: 0x690, symBinAddr: 0x100000DD8, symSize: 0x28 }
  - { offset: 0x3ACEF, size: 0x8, addend: 0x0, symName: __ZNSt12_Vector_baseIxSaIxEE17_Vector_impl_dataC2EOS2_, symObjAddr: 0x620, symBinAddr: 0x100000D68, symSize: 0x70 }
  - { offset: 0x3AD66, size: 0x8, addend: 0x0, symName: __ZSt4moveIRNSt12_Vector_baseIxSaIxEE12_Vector_implEEONSt16remove_referenceIT_E4typeEOS6_, symObjAddr: 0x60C, symBinAddr: 0x100000D54, symSize: 0x14 }
  - { offset: 0x3ADC3, size: 0x8, addend: 0x0, symName: __ZNSt12_Vector_baseIxSaIxEE12_Vector_implC1EOS2_, symObjAddr: 0x5A0, symBinAddr: 0x100000CE8, symSize: 0x6C }
  - { offset: 0x3AE71, size: 0x8, addend: 0x0, symName: __ZNSt12_Vector_baseIxSaIxEE12_Vector_implD1Ev, symObjAddr: 0x580, symBinAddr: 0x100000CC8, symSize: 0x20 }
  - { offset: 0x3AED4, size: 0x8, addend: 0x0, symName: __ZNSt12_Vector_baseIxSaIxEE17_Vector_impl_dataC2Ev, symObjAddr: 0x554, symBinAddr: 0x100000C9C, symSize: 0x2C }
  - { offset: 0x3AEFD, size: 0x8, addend: 0x0, symName: __Z5printSt6vectorIS_IxSaIxEESaIS1_EE, symObjAddr: 0x4BC, symBinAddr: 0x100000C04, symSize: 0x98 }
  - { offset: 0x3AF45, size: 0x8, addend: 0x0, symName: __Z5printSt6vectorIxSaIxEE, symObjAddr: 0x418, symBinAddr: 0x100000B60, symSize: 0xA4 }
  - { offset: 0x3AFA4, size: 0x8, addend: 0x0, symName: __ZNKSt7__cxx1112basic_stringIcSt11char_traitsIcESaIcEE4sizeEv, symObjAddr: 0x400, symBinAddr: 0x100000B48, symSize: 0x18 }
  - { offset: 0x3AFCA, size: 0x8, addend: 0x0, symName: __ZSt3minImERKT_S2_S2_, symObjAddr: 0x3C8, symBinAddr: 0x100000B10, symSize: 0x38 }
  - { offset: 0x3B010, size: 0x8, addend: 0x0, symName: __ZNSt8__detail20_Prime_rehash_policy8_M_resetEm, symObjAddr: 0x3A4, symBinAddr: 0x100000AEC, symSize: 0x24 }
  - { offset: 0x3B04B, size: 0x8, addend: 0x0, symName: __ZNKSt8__detail20_Prime_rehash_policy8_M_stateEv, symObjAddr: 0x38C, symBinAddr: 0x100000AD4, symSize: 0x18 }
  - { offset: 0x3B09D, size: 0x8, addend: 0x0, symName: __ZNSt8__detail20_Prime_rehash_policyC1Ef, symObjAddr: 0x360, symBinAddr: 0x100000AA8, symSize: 0x2C }
  - { offset: 0x3B0CC, size: 0x8, addend: 0x0, symName: __ZNKSt8__detail18_Mod_range_hashingclEmm, symObjAddr: 0x330, symBinAddr: 0x100000A78, symSize: 0x30 }
  - { offset: 0x3B132, size: 0x8, addend: 0x0, symName: __ZNSt8__detail15_Hash_node_baseC1Ev, symObjAddr: 0x314, symBinAddr: 0x100000A5C, symSize: 0x1C }
  - { offset: 0x3B15C, size: 0x8, addend: 0x0, symName: __ZNSt8__detail15_Hash_node_baseC2Ev, symObjAddr: 0x2F8, symBinAddr: 0x100000A40, symSize: 0x1C }
  - { offset: 0x3B1E3, size: 0x8, addend: 0x0, symName: __ZNSt7__cxx1112basic_stringIcSt11char_traitsIcESaIcEEC1Ev, symObjAddr: 0x24C, symBinAddr: 0x100000994, symSize: 0xAC }
  - { offset: 0x3B2D9, size: 0x8, addend: 0x0, symName: __ZNSt7__cxx1112basic_stringIcSt11char_traitsIcESaIcEE12_Alloc_hiderD1Ev, symObjAddr: 0x22C, symBinAddr: 0x100000974, symSize: 0x20 }
  - { offset: 0x3B363, size: 0x8, addend: 0x0, symName: __ZSt4moveIRSaIcEEONSt16remove_referenceIT_E4typeEOS3_, symObjAddr: 0x218, symBinAddr: 0x100000960, symSize: 0x14 }
  - { offset: 0x3B3CD, size: 0x8, addend: 0x0, symName: __ZNSt7__cxx1112basic_stringIcSt11char_traitsIcESaIcEE12_Alloc_hiderC1EPcOS3_, symObjAddr: 0x1BC, symBinAddr: 0x100000904, symSize: 0x5C }
  - { offset: 0x3B485, size: 0x8, addend: 0x0, symName: __ZSt11__addressofIcEPT_RS0_, symObjAddr: 0x1A8, symBinAddr: 0x1000008F0, symSize: 0x14 }
  - { offset: 0x3B4B7, size: 0x8, addend: 0x0, symName: __ZSt9addressofIcEPT_RS0_, symObjAddr: 0x18C, symBinAddr: 0x1000008D4, symSize: 0x1C }
  - { offset: 0x3B4E9, size: 0x8, addend: 0x0, symName: __ZNSt19__ptr_traits_ptr_toIPccLb0EE10pointer_toERc, symObjAddr: 0x170, symBinAddr: 0x1000008B8, symSize: 0x1C }
  - { offset: 0x3B516, size: 0x8, addend: 0x0, symName: __ZNSt7__cxx1112basic_stringIcSt11char_traitsIcESaIcEE13_M_local_dataEv, symObjAddr: 0x150, symBinAddr: 0x100000898, symSize: 0x20 }
  - { offset: 0x3B540, size: 0x8, addend: 0x0, symName: __ZNKSt4hashIiEclEi, symObjAddr: 0x138, symBinAddr: 0x100000880, symSize: 0x18 }
  - { offset: 0x3B576, size: 0x8, addend: 0x0, symName: __ZNSt11char_traitsIcE4copyEPcPKcm, symObjAddr: 0xC0, symBinAddr: 0x100000808, symSize: 0x78 }
  - { offset: 0x3B5DC, size: 0x8, addend: 0x0, symName: __ZNSt11char_traitsIcE6lengthEPKc, symObjAddr: 0x84, symBinAddr: 0x1000007CC, symSize: 0x3C }
  - { offset: 0x3B620, size: 0x8, addend: 0x0, symName: __ZNSt11char_traitsIcE6assignERcRKc, symObjAddr: 0x38, symBinAddr: 0x100000780, symSize: 0x4C }
  - { offset: 0x3B67C, size: 0x8, addend: 0x0, symName: __ZdlPvS_, symObjAddr: 0x20, symBinAddr: 0x100000768, symSize: 0x18 }
  - { offset: 0x3B6B2, size: 0x8, addend: 0x0, symName: __ZnwmPv, symObjAddr: 0x8, symBinAddr: 0x100000750, symSize: 0x18 }
  - { offset: 0x3B6E4, size: 0x8, addend: 0x0, symName: __ZSt21is_constant_evaluatedv, symObjAddr: 0x0, symBinAddr: 0x100000748, symSize: 0x8 }
...
